c__builtin__
set
p1
((lp2
Vtodorkrecu
p3
aVxylem
p4
aVdrdollars
p5
aVtechmr
p6
aVlivemag
p7
aViphonehizmetinden
p8
aVmakinglight
p9
aVwilliamthomas4
p10
aVtyhoward
p11
aVcorvida
p12
aVbizgi
p13
aVtolgaegilmezel
p14
aVhandeyetis
p15
aVfestic29
p16
aVtubagus
p17
aVclairewadlington
p18
aVeriskdavid
p19
aVandre
p20
aVmichaelmccurry
p21
aVsirdass2ci
p22
aVpaparazi
p23
aVtulindaloglu
p24
aVtocbuyersnet
p25
aVvsemmirom
p26
aVwoody
p27
aVhuseyinunal
p28
aVemreerdogan
p29
aVkarniyarik
p30
aVpaulmooney
p31
aVabanalex
p32
aVmarcelobernard
p33
aVtnewelerkose
p34
aVolabilirdim
p35
aVbesttechie
p36
aVbelarusolega
p37
aVallgin
p38
aVlifecoachsusan
p39
aVshawn007robinson
p40
aVumutbalkan
p41
aVtimfahndrich
p42
aVmmmelih
p43
aVblueclue008
p44
aVtoukotech
p45
aVyusuftemur
p46
aVjesuswasapunk
p47
aVsaliherbay
p48
aVjulianassange
p49
aVdongeborg
p50
aVbobrodkin
p51
aVappenines
p52
aVsucukkasar
p53
aVkerrygeorge12
p54
aVhatakah
p55
aVlora
p56
aVbomboniereweb
p57
aVharobaro
p58
aVgadgetboy
p59
aVhsnthn
p60
aVabpusa
p61
aVbarisozyurt
p62
aVjoelpan
p63
aVmalindawinn
p64
aVchristiananderson
p65
aVojes
p66
aVstrojen
p67
aVsavanemli
p68
aVhopkinson
p69
aVnoyan29
p70
aVertugztrk
p71
aVnoelbellen
p72
aVtoriknecmi
p73
aVvirgullu
p74
aVroshankfahimy
p75
aVbuche
p76
aVbatuhanicoz
p77
aVyalcinaydin
p78
aVarmyoflove
p79
aVegonomik
p80
aVwheeldeals
p81
aVtahayebaba
p82
aVhakinci
p83
aVgiandomenicoviglione
p84
aVinegoli
p85
aVderyaerice
p86
aV1galla
p87
aVcolligonetworks
p88
aVadameason
p89
aVdenkilajeunesse
p90
aVmichaelryan
p91
aVpyrmontvillage
p92
aVmuthig
p93
aVkergin2
p94
aVsinan73
p95
aVgeraldhildebrandt
p96
aVlittlebell70
p97
aVisuhaibani
p98
aVelrocco
p99
aVstewartwilson
p100
aVvvladescu
p101
aVyimin
p102
aVjoespake
p103
aVakhilan
p104
aVdreamsandbytes
p105
aVbusinessnewsinfo
p106
aVmesuten
p107
aVjefferylhenry
p108
aVrayval
p109
aVboriskitty
p110
aVrusteia
p111
aVchrisech
p112
aVgiumarto
p113
aVlukeeischen
p114
aVtumer
p115
aVurbanempire
p116
aVomeralperdalak
p117
aVlgjaffe
p118
aVfresherjobs1
p119
aVronsiegel
p120
aVbillypan101
p121
aVdelphiibo
p122
aVwishversilia
p123
aVbrqt
p124
aVpassitonmedia
p125
aVterrwashington
p126
aVgwenny
p127
aVeleanore
p128
aVmschneider718
p129
aVhasretsahin
p130
aVriverrunsagain
p131
aVwewords
p132
aVktrauberman
p133
aVsusannalegrenzi
p134
aVmarkszulc
p135
aVtheblockradio
p136
aVjmorris
p137
aVtrustler
p138
aVtraeumi
p139
aVryanmalone
p140
aVangelmorotesi
p141
aVphilipbolt
p142
aVayhanyaar
p143
aVademkarakuzulu
p144
aVevangineer
p145
aVpnlpractitioner
p146
aValicanbozyiit
p147
aVcolinhayhurst
p148
aVpraguebob
p149
aVjalil
p150
aVvarantz
p151
aVgkhanylmaz1
p152
aVdedlam
p153
aVscott3sa
p154
aVjeroendemiranda
p155
aVmehmetcemozen
p156
aVkarnadi
p157
aVerrord
p158
aVdangjaudat
p159
aVsmmpro
p160
aVxumii
p161
aVstemgarden
p162
aVkatemclaughlin
p163
aVmarlasinger
p164
aVeddowding
p165
aVtwago
p166
aVtubahamzaoglu
p167
aVdjoulz
p168
aVibrahimbingul2
p169
aVtwitart
p170
aVaffiliatex
p171
aVvictornogueiragontijo
p172
aVaffiliatecashmk
p173
aVyahyahenry
p174
aVdavidblack
p175
aVquetzalcoaltl
p176
aVzxtiz
p177
aVhappyches
p178
aVevrensahinn
p179
aVmillionerscha
p180
aVnaprova
p181
aV1337wine
p182
aVezuca
p183
aVmarcgamble
p184
aVates
p185
aVhyguest
p186
aVrogerseach
p187
aVlequaylatimer
p188
aVthemoneygeek
p189
aVstuartoneill
p190
aVjodistott
p191
aVbarbarafrench
p192
aVfinkel
p193
aVnutzareus
p194
aVerror1
p195
aVhuddlesuz
p196
aVandycliff
p197
aVrox1smf
p198
aVforgivenes
p199
aVdorisroper
p200
aV1irani
p201
aVderevij
p202
aVjchronowski47
p203
aVshawnhoskins
p204
aVsaydax
p205
aVmbertini
p206
aVkleward
p207
aVrcfishing
p208
aVchumanigallery
p209
aVyalch
p210
aVkmulford
p211
aVpr4you
p212
aVbderusha
p213
aVorcunkilic
p214
aVartrudenko
p215
aVfredplimley
p216
aVnetchick
p217
aVmichaelacernescu
p218
aVhughdeburgh1
p219
aVrickross
p220
aVshock3
p221
aVwhoischristine
p222
aVgrupoelcid
p223
aVmediacom
p224
aVsiosism
p225
aVseiro
p226
aVbartcollet
p227
aVadamzuercher
p228
aVtechnicalgreen
p229
aVdjuan3d
p230
aVwebbadgerbrock
p231
aVanchalsingh1
p232
aVgonzague
p233
aVsilviaeugeniasantos
p234
aVkeranetatlisi
p235
aVampercent
p236
aVbmatoy6
p237
aV5hayan
p238
aVgioganci
p239
aVhanswurst0815
p240
aVlavrusik
p241
aVthomasbjoerk
p242
aVshoppingandinfo
p243
aVrsky
p244
aVtomziglar
p245
aVwelshchocolatefountains
p246
aVmichellesnow
p247
aVkhajavi
p248
aVpaulvance
p249
aVcentstreet
p250
aVinbikinis
p251
aVgilcreque
p252
aVsuzhibincn
p253
aVserkan2008
p254
aVasemobilemech
p255
aVmpdreyer
p256
aVantiagingnut
p257
aVdnl
p258
aVedbice
p259
aVtherealwahms
p260
aVkennytheclown
p261
aVmitsuys
p262
aVloettapaulsen
p263
aVsimonlain
p264
aVtwangoo
p265
aViddaatahminleri1
p266
aVlezlidee
p267
aVphotomatt
p268
aVaysekeskinoglu
p269
aVfariiba
p270
aVchangemaster
p271
aVfinucane
p272
aVtrkayrkmez
p273
aVvanessahallo
p274
aVfrancescocarbonera
p275
aVberlinismydream
p276
aVsirkeystone
p277
aVjohnjalbertine
p278
aVgokhanmankara
p279
aVanthonybesson
p280
aVhunterpaschall
p281
aVecemsen
p282
aVletsgettothetop
p283
aVwiogutny
p284
aVtalkcharlotte
p285
aVadam123
p286
aVfirefairy11
p287
aVviralwordpress
p288
aVrodneyolsen
p289
aVloiscoronel007
p290
aValanalda1974
p291
aVelmaroufy
p292
aVgoldkorn
p293
aVtheaccent
p294
aVshoshanajackson
p295
aVadstew
p296
aVkatrinaprospex
p297
aVmegasafemoney
p298
aVkenlwong
p299
aVkathleengage
p300
aVceilingkat
p301
aVryankuder
p302
aVtraccedistudio
p303
aVrelationshipadvice
p304
aVaysundadelen
p305
aV7figurehelper
p306
aVannestuessy
p307
aVkunterbunt
p308
aVgokhankirdar
p309
aVrichardbagshaw
p310
aVskocaoglu
p311
aVmitduman
p312
aVjamihirsch
p313
aVpetertan
p314
aViberiarural
p315
aVmserkan
p316
aVsedatuygur
p317
aVtevfikcelik
p318
aVwarezcini
p319
aVimmmooo
p320
aVmobitaly
p321
aVhgg101
p322
aVmagicyoyo
p323
aVtracydecarlo
p324
aVbriansy
p325
aVahmetate3
p326
aVdonforan
p327
aVsheresafar
p328
aVbradyforrest
p329
aVnicolasbaudy
p330
aVvjeanneperrier
p331
aVgdidem
p332
aVdenizjoon
p333
aVerdorokko
p334
aVtoddpinsf
p335
aVmediajunkie1
p336
aVninevisions
p337
aVhewal02
p338
aVsed0
p339
aVnatekartchner
p340
aVlisahickey
p341
aVshahriarhkhan
p342
aVdjsamhouse
p343
aVkeithnewman
p344
aVpaulaschmidt
p345
aVkennethaviles
p346
aVmymemory
p347
aVcakiryusuf
p348
aVpersiantel
p349
aVdashomid
p350
aVmikevc
p351
aVmeganmarini
p352
aVbor64
p353
aValyassaalmahi
p354
aVjmcollin
p355
aVshelleyalexis
p356
aVzamdesign
p357
aValannahryane
p358
aVgroupontr
p359
aVkaibigan
p360
aVozopps1
p361
aVdeborahderas
p362
aVgulserr
p363
aVgiuliadevani
p364
aVpohlstrategic
p365
aVsamiamax
p366
aVwebinnovatives1
p367
aVacitrano
p368
aVpaulmckeon
p369
aVskimble
p370
aVsato80
p371
aVbituindelrosa
p372
aVdrscb
p373
aVjeffersonfaudan
p374
aVcnawan
p375
aVjameshaycock
p376
aVgetstaffed
p377
aVihsanbb
p378
aVozkanocsel
p379
aVpressfish
p380
aVfreshleafdesign
p381
aVfrankjanssen
p382
aVmasoud987
p383
aVdemrecordings
p384
aVchrisilluminati
p385
aVhelixblue
p386
aVshameer
p387
aVarzufidan
p388
aVraj99
p389
aVmeredithmo
p390
aVorg752011
p391
aVkarkas1
p392
aVsandym204
p393
aVcalmilist
p394
aVdcesolutions
p395
aVmanuelagiorgetti
p396
aVstoller
p397
aVsasasd
p398
aVbenasmith
p399
aVsedy
p400
aVfranknitt
p401
aVsirnicoli22
p402
aVgunerhacioglu
p403
aVgraficworld
p404
aVmucchio
p405
aVfloroister
p406
aVconstantx
p407
aVkostantiniyye
p408
aVdisasternews
p409
aVaddamiattualita
p410
aVtherosengroup
p411
aVgiovannapisicoli
p412
aVjizemu
p413
aVpersonaltransformations
p414
aVffbroma
p415
aVsonkral
p416
aVshreyg
p417
aVheathercolman
p418
aVcosmiccowpie
p419
aValpercet
p420
aVamitbhutoria
p421
aVariwoodparis
p422
aValphanmanas
p423
aVtinarexia
p424
aVtylerpruitt
p425
aVahmetburakbal
p426
aVglennm
p427
aVhappilyhappy
p428
aVsupahstah
p429
aVcananekinci
p430
aVchristinamerkley
p431
aVikaikahussey
p432
aVsolardopianorestaurante
p433
aVebloch
p434
aVsonnygill
p435
aVglennw
p436
aVmartaromero
p437
aVcraigmjamieson
p438
aVbillhazelton
p439
aVjefflearner
p440
aVforceone20001
p441
aVmandreascavaliere
p442
aViamawkari
p443
aVmertkal
p444
aVnovoseek
p445
aVbelowaa555
p446
aVoweno
p447
aVsergiogiannone
p448
aVkarafleming1
p449
aVhaberblogu
p450
aVkuromameryu
p451
aVfriendshipstone1
p452
aVlachnitt
p453
aVmarinajobes
p454
aVinteractivegm
p455
aValfredwesterveld
p456
aV2tieraffiliates
p457
aVthewebsiteplace
p458
aVcharleskidd
p459
aVilkerc
p460
aVmarnaudsjdm
p461
aVnderrett
p462
aVchrisonhismac
p463
aVtomallinder
p464
aVandreaskarman
p465
aVbbuyukguzel
p466
aVjuliboned
p467
aVleandromedeiros
p468
aVdingiltere
p469
aVjghoward
p470
aVtotalinternauta
p471
aVstephsammons
p472
aVjeffquipp
p473
aVfrankhilliard1
p474
aValiyaleigh1
p475
aV123vouchercodes
p476
aVjonpjw
p477
aVcndy
p478
aVcratete
p479
aVinikassu
p480
aVstarcraftsman
p481
aVbiswa02
p482
aVbburzycki
p483
aVaimeetillar
p484
aVtolgaakmazoglu
p485
aVcndn
p486
aVpavart
p487
aVagata1
p488
aVkpschleinitz
p489
aVnenix
p490
aVaranbanjo
p491
aVburakakpinar130
p492
aVmodelsupplies1
p493
aVilker9
p494
aVleonho
p495
aVyaslani
p496
aVashley1900
p497
aViphonegirl
p498
aVsovp
p499
aVshorespeak
p500
aVbenfeldman
p501
aVbora29
p502
aVjshaw3
p503
aVwonderfulca
p504
aVillamentodizuck
p505
aVgringo34
p506
aVcolinmitchell
p507
aVmaxav1
p508
aVnaturalenergies
p509
aVsova
p510
aVmaribethdoerr
p511
aVandrewmueller
p512
aVnetworkwithjamie
p513
aVrezakazemi
p514
aVrumblestrip
p515
aVzimmerermeisterblockhaus
p516
aVallisonjacobsen
p517
aVsearchyogi
p518
aVonursays
p519
aVigroblogcom
p520
aVvoltagegate
p521
aVamandagravel
p522
aVchrisyale
p523
aVcalli1
p524
aVarungupta
p525
aVmkeklik
p526
aVjohnornelass
p527
aVrockstarjen
p528
aVkaichun
p529
aVneni2
p530
aVmosaicrecruits
p531
aVrichardwilliamswsi
p532
aVimacreep
p533
aVmesiyama
p534
aVssevilgen
p535
aVbellekarper
p536
aVshoshanna
p537
aVleanoffice1
p538
aVsinan72
p539
aVrrbaker
p540
aVkratzdistel
p541
aVenakapata
p542
aVwoys
p543
aVmentalpraxis
p544
aVbenjaminbressington
p545
aVvictoriamilanno
p546
aVlecamelie
p547
aVprojegrubu
p548
aVsmospider
p549
aVmattb4rd
p550
aVshane8
p551
aVelvansavkli
p552
aVsesservice
p553
aVexpodato
p554
aVeserhakim
p555
aVtherealeasyway
p556
aVemiruzun
p557
aVstatefarmsucks3
p558
aVstatefarmsucks2
p559
aVstatefarmsucks1
p560
aVzagros2
p561
aVkimclune
p562
aVjeffbajayo
p563
aVdiegoev
p564
aVmeetjoeshaw
p565
aVgarretkeogh
p566
aVamandanurhasanahaziz
p567
aVcanssssssss
p568
aVheadhuntersinc
p569
aVidealownet
p570
aVsmirs
p571
aVswillemsen
p572
aVseldakom1
p573
aVphotoguyhank
p574
aVrobenderle
p575
aVghphotography
p576
aVvasilestoica
p577
aVdebashishbramha
p578
aVwebinarlistings
p579
aVgkhantrker
p580
aVischiaresidence
p581
aValicihanciplak
p582
aVnontrivialmatt
p583
aVxeus
p584
aVredmarketer
p585
aVtomdos1
p586
aVasami
p587
aVkoukai
p588
aVdavidspinks
p589
aVkermiaganmaddox
p590
aVnicolartaggart
p591
aVfilouisback
p592
aVfuturesagency
p593
aVkarolisp
p594
aVstriving4more
p595
aVindiemark
p596
aVomidghorbani
p597
aVmsrconsulting
p598
aVmichaelgioia
p599
aVbeerexpedition
p600
aVmakoyume
p601
aVdanatodd
p602
aVmovingpictures
p603
aVjhermez
p604
aVbingor
p605
aVaysoon
p606
aVmjgranger1
p607
aVmartagimeno
p608
aVmaiakg
p609
aVpietroraffa
p610
aVrichweaver1
p611
aVtechsammy
p612
aVandycincyberspace
p613
aVonderdikmen
p614
aVcomunicatistampa
p615
aVdgp
p616
aVnicolettejj
p617
aVshesonatrip
p618
aVdonegnor
p619
aVjoecascio
p620
aVresulertas
p621
aVellenamihaela
p622
aVlapaolina
p623
aVanastasialee
p624
aVkarafleming
p625
aVsohrab1901
p626
aVpr1001
p627
aVmattdipaola
p628
aVinxaoc
p629
aVbluewhale9
p630
aVanalogbeing
p631
aVsratan
p632
aVaykincakaloz
p633
aVfceblog
p634
aVzigno
p635
aVkbraylmaz2
p636
aVsabbbzzz
p637
aVsandromodarelli
p638
aVdehdemari
p639
aVjreed91
p640
aVondutyva
p641
aVoffbeatnews
p642
aVhaleyhughes
p643
aVcutnmix
p644
aVdjlukasz
p645
aVemilabirascid
p646
aVvelann3
p647
aVbesplatno
p648
aVrebeccataylorla
p649
aVmurmur551
p650
aVaureliom
p651
aVminmin146
p652
aVshansalam
p653
aVairpushads
p654
aVmslinkexchange
p655
aVjkdowson
p656
aVdustinmartin
p657
aVnerimanveyis
p658
aVazriel777
p659
aVdaloraanderson
p660
aVserdaldemir
p661
aVantoniorecupero
p662
aVradioprivas
p663
aVjoshroyer
p664
aVdonyamaries
p665
aVtommiehayward
p666
aV99luftaballoons
p667
aVokultube1
p668
aVbellacci
p669
aVgtaxl
p670
aVfrankpew
p671
aVamethystwyldfyre
p672
aVbarbararyan
p673
aVsemosankus
p674
aVcritter
p675
aVgallileo
p676
aVnaqash1
p677
aVguenterexel
p678
aVistanbulhost
p679
aVliangch
p680
aVfritzkundler
p681
aVtibor1357
p682
aVozubey
p683
aVdulcemorgue
p684
aVartifishall
p685
aVjuancarikt
p686
aVnostringsdating
p687
aVonurdegerli
p688
aVhailin
p689
aVr0bert4u1
p690
aVjoshschlottman
p691
aVpeteegeler
p692
aVmichelleprice
p693
aVcmaverick10
p694
aVgotorque
p695
aVdonnabigda
p696
aVkcclaveria
p697
aVrobevans
p698
aVcodewitch
p699
aVdelucya1
p700
aVmaximiliansandmann
p701
aVliangcw
p702
aVempubli
p703
aVcarguyboise
p704
aVwesphillips
p705
aVshingi1
p706
aVrobproctor10
p707
aVmultilingualweb
p708
aVmagostinis
p709
aVkenbruce
p710
aVgpatxi
p711
aVzombieapocalypse
p712
aVcumcum
p713
aVezander
p714
aVrscbg
p715
aVtitticimmino1
p716
aVahmet
p717
aVmattmansfield
p718
aVmaurrean
p719
aVxydexx
p720
aVsmoiseeva
p721
aVistemfer
p722
aVcahidee
p723
aViqcid
p724
aVinoutech
p725
aVnzm
p726
aVcajadeideas
p727
aVcemyilmazz
p728
aVmuratkeseroglu
p729
aVtravelersdefense
p730
aVchaooooo
p731
aVkiuzhack
p732
aVseowaresolutions
p733
aVfriendaddersoftware
p734
aVniczak
p735
aVrobshepherd
p736
aVemrahnal
p737
aVlvhindustries
p738
aVkumarakuru
p739
aVdrewheilman
p740
aVandyleff
p741
aVfiratturkoglu
p742
aVjodieelamm
p743
aVaseckincanan
p744
aVkez1000
p745
aVcharliepreston
p746
aVprairiemansd
p747
aVdavco
p748
aVhtblog
p749
aValexischapman
p750
aVshabanamirfan
p751
aVvgm
p752
aVjensthiemke
p753
aVilterkalkanci
p754
aVmaryam376
p755
aVsup3rblogg3rs
p756
aVmnstrsls
p757
aVbushwood
p758
aVmustafa270
p759
aVsalentodocce
p760
aVmcsnv
p761
aVbrentvanderstelt
p762
aVkhlaudamollard
p763
aVemrekilic
p764
aVnischal
p765
aVmmiitg
p766
aVauthorista
p767
aVyavuzsafran
p768
aVrocco90
p769
aVzerubb
p770
aVsimeonnava1
p771
aV0001974
p772
aVsatoshikikuchi
p773
aVrunwicked
p774
aVdavidkspencer
p775
aVasd7asdasd
p776
aVdominicling
p777
aVmoltogatto
p778
aVchrislott1
p779
aVdipenmandalia
p780
aVpetcareshops
p781
aVclintmaher
p782
aVloanmodsecrets1
p783
aVozlemakaln
p784
aVcileklisutt
p785
aVtennisnation
p786
aVdestiny28
p787
aVonurrde
p788
aVpomy
p789
aVflyygirls
p790
aVmalenhancement01
p791
aVzaiyou
p792
aVcanandemir
p793
aVparsoldier
p794
aVdrkent
p795
aVthehomeopathiccoach
p796
aVmattdickman
p797
aVjusosdortmund
p798
aVbluewind1
p799
aVtrawals
p800
aVladolceliving
p801
aVwjhudson
p802
aVaysebrav
p803
aVphpday
p804
aVkuafrykselaltun
p805
aVandrewjbarnett
p806
aVtimthefoolman
p807
aVcashunclaimed
p808
aVjoerg2
p809
aVganeshsrinivasan
p810
aVshootvdl
p811
aVtimcohn1
p812
aVwebdevgeek
p813
aVnaotookamura
p814
aVtrishdefeo
p815
aVkirstenrasanen
p816
aVelchera
p817
aVjulianbradder
p818
aVtribalenfexion
p819
aVjosearodriguez
p820
aVniitstudents
p821
aVshawnkball
p822
aVmichsineath
p823
aVsuleozmen
p824
aVphotoalbumcom
p825
aVjimfrancisco
p826
aVsweetney
p827
aVbuildersdome
p828
aVcaner
p829
aVmetehanturkdonmez
p830
aVbingproductions
p831
aVcihancepni
p832
aVmezago
p833
aVcharmstotreasure
p834
aVdanielalombardo
p835
aVestair
p836
aVchristopherrecommends
p837
aVdicker
p838
aVteich
p839
aVantonvolkonskiy
p840
aVrssems
p841
aVmehmetgven1
p842
aVhyamyam
p843
aVcharbarred
p844
aVotello
p845
aVjewishmiami
p846
aVttnetdestek
p847
aVpazarlamacadisi
p848
aVjaavid
p849
aVnataliesisson
p850
aVsosyalmecmua
p851
aVumithayrikoc
p852
aVtribalcafe
p853
aVlencyspezzano
p854
aVcontrolware
p855
aVelfmagic
p856
aVdragonwheels
p857
aVsylvainwallez
p858
aVpaulslugocki
p859
aVdankott
p860
aVeyakut
p861
aVthereseleigh
p862
aVdaniesq
p863
aVkkrseattle
p864
aVpopularatshul
p865
aVbreatheasy70000
p866
aVamineh
p867
aVdumpkopf
p868
aVastagge
p869
aVmarieporter
p870
aVresumehelp
p871
aVosscube
p872
aVrobertping
p873
aVvrsmoney
p874
aVhairlossclinic
p875
aVsocialgumbo
p876
aVtheredcanarychicago
p877
aVmarcboyajian
p878
aVtouteleurope1
p879
aVdavemcclure
p880
aVtwiklama
p881
aVchispr
p882
aVmannyotiko
p883
aVtrkstr
p884
aVlarissabontempi
p885
aVclassic91
p886
aVsalih40
p887
aVskyje
p888
aVgottagettawookiee
p889
aVsalih43
p890
aVstefanoruggierosteeo
p891
aVsrslabs
p892
aVdavidblide
p893
aVantiagingsci
p894
aVeavanwyk
p895
aVlibraryjock
p896
aVyoursay1
p897
aVozlemduman
p898
aVbuypirateboots
p899
aVzone99
p900
aVpebbles1066
p901
aVgiakhang
p902
aVendlesschild
p903
aVonemorebite
p904
aVmileshennis
p905
aVsadiemurray
p906
aVpkarunkumar
p907
aVmetartcom1
p908
aVjmichaeledwards
p909
aVconcertfreakjj
p910
aValexxa
p911
aVshawncampbell
p912
aVenergytoactnow
p913
aVdanielkuehn
p914
aVmriya
p915
aVmagnaray
p916
aVtimburleigh
p917
aVcpamoms
p918
aVjaygerland
p919
aVfundasularoz
p920
aVcamforbes
p921
aViamloulou
p922
aVkadiraltan
p923
aVavilasal
p924
aVcemalavcu
p925
aVproudcodemonkey
p926
aVmscofino
p927
aVsmaentz
p928
aVdeaconbradley
p929
aVdj48
p930
aV7amit7
p931
aVvalreiss
p932
aVprofessorgacom
p933
aVjewelryjardin
p934
aVstevepitt
p935
aValptankurt
p936
aVallyblackburn
p937
aVhamid2547
p938
aVhomebiz18
p939
aVdesignforfree
p940
aVmurattali
p941
aVdenizikizler
p942
aVraziels
p943
aVpopdarlings
p944
aVukdivorce
p945
aVpaulrostorp
p946
aVbartonmurray
p947
aVbryanschuetz
p948
aVgaryjob
p949
aVvochud
p950
aVmisterperturbed
p951
aVhoogenboom
p952
aVrichthomas
p953
aVbierkoning
p954
aVloti
p955
aVirk
p956
aVhasandzgn
p957
aVjanispettit
p958
aVprudentialselectre
p959
aVyvonnerice
p960
aVsiddharthdeb
p961
aVservizisicurezzaitalia
p962
aVxvd
p963
aVomerekinci
p964
aVcandyinprogress
p965
aVhah
p966
aVwritefromkaren
p967
aVgiftedmum
p968
aVonurcetin
p969
aVnachbarschaft
p970
aVendefinonone
p971
aVtsuruzo
p972
aVtwittingcritter
p973
aVwolfcrane
p974
aVbronwynwilson
p975
aVjeremychone
p976
aVjordanbrown
p977
aVlivesportstv
p978
aVkirstenalexander
p979
aVmarianne1
p980
aVheidipage
p981
aVdrdavidlipman
p982
aVthechannelc
p983
aVaffiliater
p984
aVpeterharris
p985
aVbarijoe
p986
aVbenmunoz
p987
aVseanpatricksean
p988
aVkinoman1
p989
aVegitimtube
p990
aVerinnicrobbins
p991
aVavtolife
p992
aVbryanhughes
p993
aVbbshadoks
p994
aVretweetcentral
p995
aVvboy
p996
aValeyhin
p997
aVjresearches
p998
aVchristianjohn
p999
aVflyingtrilobite
p1000
aVfleetriskconsultants
p1001
aVumutcan5
p1002
aVdscotthirsch
p1003
aVkonikaze
p1004
aVbradsingleton
p1005
aVderrickstory
p1006
aVsyepes
p1007
aVfindabed
p1008
aVfred2baro
p1009
aVesir
p1010
aVhac
p1011
aVivanalvarez
p1012
aVyodapunk
p1013
aVcsshook
p1014
aVkfehin
p1015
aVgatahd
p1016
aVerezalfandari
p1017
aVrogerorionbluebookcom
p1018
aVblogmum
p1019
aVtafreevar
p1020
aVmikebpo1
p1021
aVtamaragielen
p1022
aVkinerenterprise
p1023
aVtanercakar
p1024
aVgetusamade
p1025
aVrolandbates2
p1026
aVcygnoir
p1027
aValeeh
p1028
aVszetela
p1029
aVonikuz
p1030
aVmyownchatline
p1031
aVdanelectric
p1032
aVlinkgrab
p1033
aVtoddbrink
p1034
aVfranklarrabeee
p1035
aVkickassbody
p1036
aVburnflare
p1037
aVufandrama
p1038
aVjack36
p1039
aVmaxoood
p1040
aVplaybigstocks
p1041
aVbryansayler
p1042
aVandarlgaripleri
p1043
aVlyonora
p1044
aVevm
p1045
aVjaci
p1046
aVashleighmccartney
p1047
aVheyjudeonline
p1048
aVgeldwissen
p1049
aVveritasvincet
p1050
aVjamesmoran
p1051
aValeksandrkamshalov
p1052
aVmarksettle
p1053
aVbarbedshop
p1054
aVkatharsis
p1055
aVmogdotcom
p1056
aVfilmmaker
p1057
aVhotelsetc
p1058
aValibayrakci
p1059
aVkimmdarbonne
p1060
aVspif
p1061
aVanjelinabanana
p1062
aVeytanelbaz
p1063
aVlinked2alex
p1064
aVdomi64
p1065
aVjeanyveshuwart
p1066
aVquakerindia
p1067
aVspin
p1068
aVasimonal
p1069
aVfunya3
p1070
aVegemenpasli
p1071
aVlisrisi
p1072
aVmigu999
p1073
aVlaurenfulcher
p1074
aVjessebaer
p1075
aVrichfinck
p1076
aVtherewholesaler
p1077
aVgreggfraley
p1078
aVthetaoofdad
p1079
aVjoaocarlosrocha
p1080
aVgreekgirlinlondon
p1081
aVgturkeli
p1082
aVthesocialgamer
p1083
aVfeinholz
p1084
aVemreurfali
p1085
aVavrev
p1086
aVapplesh
p1087
aVmazhen
p1088
aVsaidismeenk
p1089
aVandreapernici
p1090
aVapplesd
p1091
aVnekonecho
p1092
aVtintin
p1093
aVrussfield
p1094
aVsimopieranni
p1095
aVjaynebrodie
p1096
aVmrrichsin
p1097
aVginabendel
p1098
aVdswabster
p1099
aVbrspall
p1100
aVomcdesign
p1101
aVkarinenascimento
p1102
aVcemozkaynak
p1103
aVsupirole
p1104
aVyamacyilmaz
p1105
aVmassagedaily
p1106
aVultimacarcom
p1107
aVmartinakircher
p1108
aVcyrusthegreat
p1109
aVwordpressfreak
p1110
aVgregsantos
p1111
aVmeandtheworld
p1112
aVitweetall
p1113
aVshaygan
p1114
aVcanisinglessons
p1115
aVluca2
p1116
aVcjalvarado
p1117
aVericola
p1118
aVmichaelhuttner
p1119
aVshabnam8
p1120
aVkochiyachin
p1121
aVtbbtsite
p1122
aVfreefinancial
p1123
aVpierrot
p1124
aVjangro
p1125
aVhopebruens
p1126
aVairforcecoach
p1127
aVbdmckill
p1128
aVsws2010
p1129
aVrevrev
p1130
aVachouvet
p1131
aVoralunal
p1132
aVlorrainesf
p1133
aVyamashitamizue
p1134
aVbilosupersaver
p1135
aVgena00
p1136
aVflorezalonso1
p1137
aVchrispolk
p1138
aVogn1
p1139
aVwaytonepal
p1140
aVakhravi
p1141
aVkir
p1142
aVmoviecamp
p1143
aVbrainstraining
p1144
aVsgiachello
p1145
aVmyharbours
p1146
aVtoolsjournal
p1147
aVedconsulting
p1148
aVbunker
p1149
aVbquintela
p1150
aVmarchel
p1151
aVdaddario
p1152
aVflipflopnana
p1153
aVbugra31
p1154
aVforexoxcurrency
p1155
aVsima0222
p1156
aVclaudiovaccaro
p1157
aVfabriziominella
p1158
aVkamonohashi
p1159
aVtuesmarocain
p1160
aVgeeac
p1161
aVmustafaguner
p1162
aVmarioolckers1
p1163
aVmainsequence
p1164
aVjane14
p1165
aVchiefsworld
p1166
aVdignews
p1167
aVfourmiz
p1168
aVc14vsc12
p1169
aVchooseurcareer
p1170
aVegrovesystemsblog
p1171
aVesther16
p1172
aVx5a6m
p1173
aVmentore
p1174
aVbarkingspiderblog
p1175
aVnkragic
p1176
aVgttnnn1
p1177
aV86blogger
p1178
aVmgsavoy
p1179
aVzaralockwood
p1180
aVmccormicksgifts
p1181
aVjoeboydston
p1182
aVjozacg
p1183
aVkobzar
p1184
aVnathanwburke
p1185
aVseriouslymcmillan
p1186
aValbertalbs
p1187
aVslapneck
p1188
aVstephenhyde
p1189
aVdanielmorgan
p1190
aVwarriorcustomgolf
p1191
aVpaigefiller
p1192
aVryanthomasharring
p1193
aVmooncash
p1194
aVsusangilbert
p1195
aVlunjap
p1196
aVfishingcanada
p1197
aVlaurenceexigent
p1198
aVitadvisers
p1199
aVlloydsheng
p1200
aV50plusfinance
p1201
aVcarteblanchenlp
p1202
aVstnc
p1203
aVburak95
p1204
aVbarbaralehill
p1205
aVevasnijders
p1206
aVthesuperdave
p1207
aVandreanur
p1208
aVtutku
p1209
aVdsayed
p1210
aValimbaysan
p1211
aVerendiril
p1212
aVgedkhss
p1213
aVblondeinside
p1214
aVwhoisjob1
p1215
aVindissolvenzeanimatoriali
p1216
aVpaoloratto
p1217
aVdawnologie
p1218
aVmosamosa
p1219
aVtazran
p1220
aVquotes1
p1221
aVmustafauysaloglu
p1222
aVpraphullachowdary
p1223
aVsteveallen
p1224
aVcgd02
p1225
aVmkerres1
p1226
aVgilbertogalea
p1227
aVjohnhaydon
p1228
aVprasetyo11
p1229
aVuurat
p1230
aVcowangroup
p1231
aVrobynemu1
p1232
aVjfpoulin
p1233
aVysiviajas
p1234
aVwatfordgap
p1235
aVstillicel
p1236
aVchristopherreburn
p1237
aVchoyt
p1238
aVjohnchatman
p1239
aVcodymckibb
p1240
aVjeremiades
p1241
aValirezavahabi
p1242
aVryanstewman
p1243
aVshinichikudoh
p1244
aVbilkentlihmnvs
p1245
aVangryamoeba
p1246
aVjoesacco
p1247
aVbellsandchimes
p1248
aVjohnbfrommemphis
p1249
aVsinanil
p1250
aVnatanala
p1251
aVrondoylewrites
p1252
aVvalentinazola
p1253
aVgaylespook
p1254
aVkrmkhazm
p1255
aVvictorvictoria
p1256
aValenasovet
p1257
aVseocoder
p1258
aVdavidchao
p1259
aVmultigncl
p1260
aVcajuntechie
p1261
aVharima
p1262
aVathenakorka
p1263
aVgade
p1264
aVwytchpriest
p1265
aVfrancescomirenda
p1266
aVnopenopenopenope
p1267
aVsunzhifeng
p1268
aVmichigangolf
p1269
aVmrhinkle
p1270
aVlacroix
p1271
aVnilaygurman
p1272
aVjedediahbennett
p1273
aVjodinescorner
p1274
aVmaeras
p1275
aVfranksnyder
p1276
aVkhogeveen
p1277
aVphotosip
p1278
aVbuonacqua
p1279
aVar901
p1280
aVaudiofamilies
p1281
aVguenthersellner
p1282
aVehealthgr
p1283
aVefish
p1284
aVjoytravels
p1285
aVtmancino
p1286
aVaadi
p1287
aVmaryjaksch1
p1288
aVseokanika
p1289
aVappfy
p1290
aVsuekernfleischer
p1291
aVstewart2686
p1292
aVvazimanova
p1293
aVmammachook
p1294
aVema094
p1295
aVmervilyus
p1296
aVpenticorap
p1297
aVarareage
p1298
aVchristinarowe
p1299
aVstormy725
p1300
aValeciabatson
p1301
aVjillfood
p1302
aVeudaimonic
p1303
aVjohnrobertusa
p1304
aVkcomment
p1305
aVwebdelphi
p1306
aVpdmecd
p1307
aV1millionnow
p1308
aVmarvinvicedo
p1309
aVyikukocoach
p1310
aVddguclu
p1311
aVemreboran
p1312
aVerichmiller
p1313
aVkellybarrsupermom4legal
p1314
aVstere
p1315
aVjoehewitt1
p1316
aVevolvefest
p1317
aVjgrass
p1318
aVcapricorntwt
p1319
aVlesilva
p1320
aVmistralfashion
p1321
aValexbrasil1
p1322
aVraimon
p1323
aVjillianhayes
p1324
aVmobicip
p1325
aVhitesh3
p1326
aVronhagenhoff
p1327
aVmafesto
p1328
aVmichellplested
p1329
aVbastetinthesky
p1330
aVashleygilmore
p1331
aVprofudeinfo
p1332
aVjaceksilvesterkuehl
p1333
aValbertpelias
p1334
aVsirensexy
p1335
aVrooker
p1336
aValro
p1337
aVbboy2
p1338
aVskinscads
p1339
aVgeorgegsmithjr
p1340
aVyuloads
p1341
aVtonybrown1
p1342
aVmatteoberlucchi
p1343
aVvestnik1
p1344
aVgyehuda
p1345
aVimrananwar
p1346
aVharutake
p1347
aVrandybrown1
p1348
aVlota
p1349
aVnbsmith
p1350
aVsilvanaccessorimoda
p1351
aVspawm09
p1352
aVrssseo
p1353
aVjackingram
p1354
aVtospider
p1355
aVmirnyatom
p1356
aVmdraysulhoque
p1357
aVchiaralice
p1358
aVjack358
p1359
aVbodoff
p1360
aVnzcraftbeertv
p1361
aVadep
p1362
aVjpanico
p1363
aVmugathur
p1364
aVtroycoleman
p1365
aVjanardpropertyllc
p1366
aVgerrywieder
p1367
aVwaistcoatsdirec
p1368
aVfeaturedusers
p1369
aVmarymetcalf
p1370
aVbodrumanteremlak
p1371
aVkentbrew
p1372
aVmarchip1
p1373
aVfirsatciyiz
p1374
aVahmetate1
p1375
aVyasnayaguibert
p1376
aVomeradiyaman1
p1377
aVelstevensjr
p1378
aVpablomariani
p1379
aVsxolesodigonbariamis
p1380
aVemmapeel
p1381
aVsizofroid
p1382
aVgnefil
p1383
aVsnoopdave
p1384
aVtupanchev
p1385
aVempowernet
p1386
aVferitilker
p1387
aVrobgrady
p1388
aVdavidedicillo
p1389
aVelixirist
p1390
aVhavenwood
p1391
aVrk295
p1392
aVhuseyinarduc
p1393
aVburakpehlivan
p1394
aValexrodrigues43
p1395
aVmatryx1
p1396
aVgilesb
p1397
aVvioletmae
p1398
aVduck1123
p1399
aVlaphilosophie
p1400
aVdostalek
p1401
aVgreggh
p1402
aVmorganarae
p1403
aVbaomian
p1404
aVsolnyshko
p1405
aValper42
p1406
aVnyhomes4sale
p1407
aVripplewaseda
p1408
aVdavewoodson
p1409
aVcocodesigns
p1410
aVpirelerpipimiyediler
p1411
aVsisyphusfragment
p1412
aVzippomermaid
p1413
aVlaphilosophia
p1414
aVthirdeye
p1415
aVsmudgechris
p1416
aVfabriz
p1417
aVlocke5
p1418
aVnoriyo
p1419
aVeminiacademy
p1420
aVhkysj
p1421
aVjschwanz
p1422
aVdugeme
p1423
aVbudak
p1424
aVhlbice
p1425
aVyuroyoro
p1426
aVazadiiraneman1
p1427
aVkhulna9000
p1428
aVbranstrom
p1429
aVtmarkiewicz
p1430
aVsaralingafelter
p1431
aVturkiyedengenisaileler
p1432
aVgisernia
p1433
aVdebashishbrahma
p1434
aVbloggingbistro
p1435
aVshaynorulz
p1436
aVheptonrk
p1437
aVahmetirmak
p1438
aVawadheshprasad
p1439
aVslamdunk87
p1440
aVdietmarmitterer
p1441
aVeceolcay
p1442
aVvotrexflame
p1443
aVhexybaby
p1444
aVdjanael1
p1445
aVtheeventblogspot
p1446
aVbaze
p1447
aVblfarris
p1448
aVpinpoints
p1449
aVrankedorg
p1450
aVgimpson
p1451
aVshaziamalik
p1452
aVmelvinblog1
p1453
aVrobhayes
p1454
aVturkantorun
p1455
aVeibrahim
p1456
aVerospirlanta
p1457
aVjaffejuice
p1458
aVamy1230
p1459
aVbenedikt
p1460
aVjahanzyb
p1461
aVbitkiseldiyet
p1462
aVciberfabio
p1463
aVkennyssk
p1464
aVpaolaemosrei
p1465
aVcentralfloridarealtor
p1466
aVchrissisheppard
p1467
aVlovemeanfucking
p1468
aVsylviaben
p1469
aVwhitehatmedia
p1470
aVreiys
p1471
aVprostomore
p1472
aVleaterry1
p1473
aVeris404
p1474
aValanredmond
p1475
aVthomasdillmann
p1476
aVmangelet
p1477
aVdelucajared
p1478
aVthailan
p1479
aVjohnrp
p1480
aVfbahce1907
p1481
aVjianshuo1
p1482
aVkirill220719951
p1483
aVimrenserdar
p1484
aVjpglive
p1485
aVtutorian
p1486
aVsavvypriya
p1487
aVshanntastic
p1488
aVhettling
p1489
aVemrikazorlu
p1490
aVfm102x
p1491
aVwealthywarrior
p1492
aVjillkocher
p1493
aVadrianaoun
p1494
aVnoriaki
p1495
aVquinnelk
p1496
aVthreepassdotcom
p1497
aVrosellavivio
p1498
aVprthatrocks
p1499
aVkencook
p1500
aVfakirpich
p1501
aVhawkee
p1502
aValexandroupolionline
p1503
aVandroverdose
p1504
aVwillbennett1960
p1505
aVpalmd
p1506
aVkitson
p1507
aVchunkiv1
p1508
aVeacute
p1509
aVohomen171
p1510
aVmatrobar
p1511
aVekoayrinti
p1512
aVgothica
p1513
aVidavilis
p1514
aVrobshill
p1515
aVarzuyrdkl
p1516
aVmariateresa3
p1517
aVfikirblog
p1518
aVfso
p1519
aVburnworld
p1520
aVpileggi
p1521
aVsosyo
p1522
aVmiketempleton
p1523
aVmarketjbs
p1524
aVfsw
p1525
aVtonkopey
p1526
aVducacontemanu
p1527
aVtdbriz
p1528
aVbookdads
p1529
aVosy
p1530
aVcengizyl
p1531
aVaydankaratas
p1532
aVoscarcumi
p1533
aVhollysmithbook
p1534
aVpeoplescontent
p1535
aVfranknjohnson
p1536
aVdcale19651
p1537
aVdfavatas
p1538
aVatmostrio
p1539
aVkriswaldherr
p1540
aVrusov
p1541
aVtexeyes
p1542
aVmistersugar
p1543
aVmatushiq1
p1544
aVvj237
p1545
aVsinaafra
p1546
aVfabricecalando
p1547
aVlegallyheidi
p1548
aVdbannon
p1549
aVmattscheck
p1550
aVrobpatrick
p1551
aVjonnyscott
p1552
aVofinancial
p1553
aVbbd8787
p1554
aVheathertaskovics
p1555
aVpattytrendy
p1556
aVcredittrauma
p1557
aVadmrich
p1558
aVfalconays
p1559
aVntffc
p1560
aVblastation
p1561
aVgogozeybek
p1562
aVnewmediajen
p1563
aVantonybirks
p1564
aVbrunomertins
p1565
aVcrysohara
p1566
aVtechmalaya
p1567
aVsebunmedia
p1568
aVneoluyocom
p1569
aVgunescoskun
p1570
aVkatherineyoungwork
p1571
aVjeri
p1572
aVpatriciareszetylo
p1573
aVweeklyworldnews
p1574
aVdeswalsh
p1575
aVjere
p1576
aVaydngms
p1577
aVjeannetteriner
p1578
aVkathleengagespeaker
p1579
aVlahoradelcafe
p1580
aVgiltentertain
p1581
aVannejovie
p1582
aValexninjamarketing
p1583
aVmuldermedia
p1584
aVsamrosen
p1585
aVryan16
p1586
aVmpavey
p1587
aVmariateresacautiero
p1588
aVsamet00
p1589
aVcedarcide
p1590
aVbacktominerva
p1591
aVtara808
p1592
aVleefox
p1593
aVepalace
p1594
aVvictorgraham
p1595
aVdannydenhard
p1596
aVinfosloisirslyon
p1597
aVesmer042
p1598
aVxannajones
p1599
aVheavydistorted
p1600
aVelizabethlaird
p1601
aVjacobeeckhout
p1602
aVintendance
p1603
aVyaroslavkorets
p1604
aVcalebkk
p1605
aVognibeni
p1606
aVbaxxx
p1607
aVwebmastersucks
p1608
aVpwhalen
p1609
aVpfly21
p1610
aVgrijsz
p1611
aVmerfarukztrk
p1612
aVmakenzie
p1613
aVcamillea
p1614
aV0grace
p1615
aVsusiepitt
p1616
aVvilaoooo
p1617
aVjillylivi
p1618
aVmarkfish
p1619
aVkennarealestate
p1620
aVmauromagnani
p1621
aVnedimozkan
p1622
aVunreal1990
p1623
aVeletendre1
p1624
aVpickup101
p1625
aVhinderer
p1626
aVchowdawg
p1627
aVrockkvid
p1628
aVannniple
p1629
aValperkt
p1630
aVswizzlenuts
p1631
aVbenocukran
p1632
aVtorbooks
p1633
aVteodoracostanzo
p1634
aVtanyelyilmaz
p1635
aVeylemkoca
p1636
aVdavidgcarpenter
p1637
aVburcu
p1638
aVstoneyboney
p1639
aVphilelliott
p1640
aVtonychall
p1641
aVjillyrh
p1642
aVnicolasjegou
p1643
aVdh00
p1644
aVintuitivebuzz
p1645
aVenginkivrak
p1646
aVebookgigant
p1647
aVgl0wa
p1648
aVjimmypezzodicacca
p1649
aVtrish3
p1650
aVzrell
p1651
aVmetropolisgraphichechoam
p1652
aVjeneweine
p1653
aVjames0072
p1654
aVcullenw
p1655
aVmariosundar
p1656
aVgiacomobassi1
p1657
aVsevgiustundag
p1658
aVismailaltunta
p1659
aVbabyfacemonster
p1660
aVfacua
p1661
aVmarktis
p1662
aVgnsmsk
p1663
aVmyblogcanada
p1664
aVfacun
p1665
aV1tasattimkuyuya
p1666
aVelizabethjunean
p1667
aVdltravis
p1668
aVmyexoticfriends
p1669
aVcvspecial
p1670
aVfrankwaters
p1671
aVgregmeares
p1672
aVjjwitter
p1673
aVmixmic
p1674
aVbalwa
p1675
aValpergulecoglu
p1676
aVdeggie
p1677
aVdavebull
p1678
aValexmetrov
p1679
aVreclaimmaterial
p1680
aVsamiguzel
p1681
aVbookmadam
p1682
aVmarco4623
p1683
aVangel1379
p1684
aVreginaldgolding
p1685
aVpracticehacker
p1686
aVsharifulislamdollar
p1687
aVsunshinereview
p1688
aVbbille
p1689
aVcandevecioglu
p1690
aVrandomo
p1691
aVmorisfree
p1692
aVreklamtoplulugu
p1693
aVfrancescavonhabsburg
p1694
aVbarrygeiman
p1695
aVeastro
p1696
aVgetminingjobs
p1697
aVronrad
p1698
aVdarnell
p1699
aVmanisatr
p1700
aVericwhite
p1701
aVtracyfarnsworth
p1702
aVelquique
p1703
aVsamlaw
p1704
aVsybrrgeek
p1705
aVtombonner
p1706
aVtonys2110
p1707
aVslickriptide
p1708
aVapluswrecker
p1709
aVthrobbinjack
p1710
aVduncanperry
p1711
aVsuhd
p1712
aVobeca
p1713
aVangiexitosa
p1714
aVderekthomasla
p1715
aVuurglbaharl
p1716
aVuneedapart
p1717
aVmonicaabeltran
p1718
aVhirorimet
p1719
aVkeepit100fm
p1720
aVuxrevisions
p1721
aVtattoofont3d
p1722
aValtax
p1723
aVmehmetbuyukgurel
p1724
aVstickontheradio
p1725
aVdatzhottblogger
p1726
aVvefayildiz86hotmailcom
p1727
aVmikser72
p1728
aVjuliesommervillebhat
p1729
aVnobusue
p1730
aVilyaskose
p1731
aVredlettergospel
p1732
aVvorovtsev
p1733
aVumennet1
p1734
aVlandontorpnow
p1735
aVjohnyhilfiger
p1736
aVjustg
p1737
aVfazlitemizel
p1738
aVcoreykoehler
p1739
aVcocooncreations
p1740
aVchicasmodelos
p1741
aVilrnspanish
p1742
aVgregoire
p1743
aVcanererim
p1744
aVxavixjf
p1745
aVnzbard
p1746
aVpinky73
p1747
aVwangwt
p1748
aValmerimarlife
p1749
aVgiaiphong
p1750
aVmichellenakaji
p1751
aVjewelniles
p1752
aVideanet
p1753
aVfschoening
p1754
aVjaysonshawver
p1755
aVcandy8
p1756
aVnetworktothetop
p1757
aVabhaykumar
p1758
aVcarolynwood
p1759
aVburcuozturk1
p1760
aVbilue
p1761
aVkrazzypraveen
p1762
aVkristinajl
p1763
aVpaganmomblog
p1764
aVpearapps
p1765
aVworldlifesite
p1766
aVjessedl
p1767
aVbenzorn
p1768
aVpeterstmartin
p1769
aVvehbipekpak
p1770
aVianlatham
p1771
aVchere1
p1772
aVlafra
p1773
aVlonleygeorge
p1774
aVsimonandschusteruk
p1775
aVchristmasgorilla
p1776
aVvickylaney
p1777
aVbridgetoturkeyfund
p1778
aVwarlach
p1779
aVdailycoolstuff
p1780
aVdaryldaughtry
p1781
aVavgust68
p1782
aVhsakawa
p1783
aVmegamind
p1784
aVhigheredjobs
p1785
aVfilmtube
p1786
aVtinotriste
p1787
aVjaviergodoy
p1788
aVlolitacarrico
p1789
aVbitkiselgogusbuyutucu
p1790
aVkennethtang
p1791
aVasdonair
p1792
aVrichardault
p1793
aVecarrillojr1
p1794
aVsefa6
p1795
aVwomenrepublic
p1796
aVliquene
p1797
aValexandergordon
p1798
aVjustsoblogger
p1799
aVsprague
p1800
aVmsredwriting
p1801
aVinteractivemarketing
p1802
aVdrflower
p1803
aVruhrstudio
p1804
aVsavascaliskan
p1805
aVayops
p1806
aVfrancescopazienza
p1807
aVjwijgerd
p1808
aVmusicmaestroplease
p1809
aVhannibal516
p1810
aVjwsgoldwing
p1811
aVlloyddavis
p1812
aVbenmadsen
p1813
aVquadrani
p1814
aVktwalks
p1815
aVdavegirard
p1816
aVasumantoraman
p1817
aVbelial
p1818
aVfaberdep
p1819
aVneilrussell
p1820
aVtsiger
p1821
aVemmalouise1
p1822
aVloyabri
p1823
aVskelesoglu
p1824
aVdeemray33
p1825
aVkaykha
p1826
aVejbwbiz
p1827
aVmerlynsanchez
p1828
aVarmansen
p1829
aVkirakiracrystal
p1830
aVdbcohen
p1831
aVcmims
p1832
aVgotmine
p1833
aVnecibeozer
p1834
aVpopularculture
p1835
aVleviks
p1836
aVilim
p1837
aVcitizengr
p1838
aVbubugu
p1839
aVmasahaya1
p1840
aVmari58
p1841
aVdeanwade
p1842
aVodtusa
p1843
aVeklaus
p1844
aVayeshacommlab
p1845
aVjohnleonard
p1846
aVilkerburak
p1847
aVrealestateonline
p1848
aVjoeguitar
p1849
aVrobertosicardi
p1850
aVwayofchampions
p1851
aVburakemi
p1852
aVjohnwillims
p1853
aVorazios
p1854
aVjia
p1855
aVmariadasgraaspassos
p1856
aVjim
p1857
aVsinemmagdenoglu
p1858
aVdid5
p1859
aVnchiyo
p1860
aVdexternelson
p1861
aVwanderlifenews
p1862
aVaubparkthailand
p1863
aVjoezawada
p1864
aVdeanmarsh
p1865
aV1onlinedating
p1866
aVelifedakaragozlu
p1867
aVdevranerogul
p1868
aVmodellbahn
p1869
aVcathrinefeehely
p1870
aVtgrundy
p1871
aVyozzo1
p1872
aVobemestar
p1873
aVsotvorenie7
p1874
aVworldweatherpost
p1875
aVfeedyouradhd
p1876
aVgoldmiller
p1877
aVhealthywealthy4
p1878
aVbarboramusic
p1879
aVnicomarti
p1880
aVeventtrader
p1881
aVfranka20091
p1882
aVmarketkeyfi
p1883
aVhigmah
p1884
aVladrecords
p1885
aVjuliamitchell
p1886
aVjpcnyc
p1887
aVjasonlittrell
p1888
aVbobdemarco
p1889
aVdreamcatchers
p1890
aVthewildwechris
p1891
aVuluyldz
p1892
aVaki55p
p1893
aVmustafabugra
p1894
aVbriannorgard1
p1895
aVcbrumelle
p1896
aVbulutesref
p1897
aVresetitalia
p1898
aVangelofrighetto
p1899
aVzhaolin526
p1900
aVrwandering
p1901
aVcrashtestmommy
p1902
aVrohallahganjali
p1903
aVviigoo1
p1904
aVcarlgriffith
p1905
aVtemplateparatodos
p1906
aVstefanopochet
p1907
aVsurf4wine
p1908
aVaysebayramoglu
p1909
aVrobertamutti
p1910
aVwinemedineme
p1911
aVmertakbayir
p1912
aVrfrolick1
p1913
aVgarrettlisi
p1914
aVsimranjeetsingh
p1915
aVtannock
p1916
aVdbcotton
p1917
aVkvizer
p1918
aVrussweakley
p1919
aVuppervalleymom
p1920
aVkeefmoon
p1921
aViamreinaldolopez
p1922
aVanoo1
p1923
aVmarkich1
p1924
aVtetrisplay
p1925
aVkadirtombak
p1926
aVjoshtetrick
p1927
aVeyerrshlassy
p1928
aVthinkled
p1929
aVchiaradalben
p1930
aVemallo
p1931
aValessandroligi
p1932
aVbefy
p1933
aVcerenzeytinci
p1934
aVtoshi00
p1935
aVokawauchimari
p1936
aVcoldasclay825
p1937
aVcforbesoklahoma
p1938
aVallthewaypodcast
p1939
aVisidro
p1940
aVchriskilber
p1941
aVmertzorluoglu
p1942
aVemoyan
p1943
aVmaxelayer1
p1944
aVseymacavusoglu
p1945
aVmiltonvasquezdiaz
p1946
aVspellsblckmagic
p1947
aValiasiry
p1948
aVgeweb
p1949
aVynmcreations
p1950
aVxsusa
p1951
aVzaneeducation
p1952
aVveraelentari
p1953
aVkarnatos
p1954
aVcoolpeoplecare
p1955
aV360jobinterview
p1956
aVmuhaber
p1957
aVtraceylea9
p1958
aVsillygillman
p1959
aVrle
p1960
aVsyuaisu
p1961
aVfthdnmz
p1962
aVthonk
p1963
aVdvautier
p1964
aVozgeyigiter
p1965
aVnikolaa
p1966
aVedunetsys1
p1967
aVmaeya
p1968
aVigorthetroll
p1969
aVwebochronik
p1970
aVgrayfoxdown
p1971
aVcharlottecenter
p1972
aVmbekezm
p1973
aVmugambi
p1974
aVfire9
p1975
aVsakacehennemi
p1976
aVbyte
p1977
aVkan5
p1978
aVsdra1984
p1979
aVcherishart
p1980
aVluispablos
p1981
aVsassawang
p1982
aV4freecle
p1983
aVfmanjoo
p1984
aVkeithcrovatt
p1985
aVmarkcolless
p1986
aVclprez
p1987
aVgorkemcanuygun
p1988
aVguglielmotroiano
p1989
aVrussianseo
p1990
aVsedatsevgili
p1991
aVsassy1
p1992
aVforzajuve
p1993
aVbbrookens
p1994
aVsewdanish
p1995
aVsantacorporate
p1996
aVhazinico
p1997
aVlightandcomposition
p1998
aVpitlord
p1999
aVisbilir
p2000
aVsethgray
p2001
aVpelinbayturk
p2002
aVscoregrid
p2003
aVpushkingnoize
p2004
aVmehmet249
p2005
aVfthylmz
p2006
aVspencerashby
p2007
aVworldofhiglet
p2008
aVtokinaka
p2009
aVakio0911
p2010
aVnkymn
p2011
aVmegimedia
p2012
aVygsiptaledilsin
p2013
aVsenithomas
p2014
aVjurnal
p2015
aVvanelsas
p2016
aVdrmotivator
p2017
aVsvetlik
p2018
aVlunchinabox
p2019
aVattract2success
p2020
aVblg1
p2021
aVdavedobbs
p2022
aVfffigen
p2023
aVcyschneider
p2024
aVshane2
p2025
aVthegreatergood
p2026
aVevaracing
p2027
aVelizabethaenglishenglish
p2028
aVzaw
p2029
aV16minbody
p2030
aVarendaneva
p2031
aVtamarg
p2032
aVsushilyadav11
p2033
aVlesflaneursit
p2034
aVmichaelgagliardi3
p2035
aVjkorten
p2036
aVgeekgiant
p2037
aVmacsf
p2038
aVelenemarsden
p2039
aVlijomloyid
p2040
aVemoryshatzer
p2041
aVdrmullerj
p2042
aVhueniverse
p2043
aVgacommerceclub
p2044
aVgoogletutor
p2045
aVshinchi
p2046
aVterrybain
p2047
aVlongwindedness
p2048
aVkylereed
p2049
aVjeffunity
p2050
aVcityofarvada
p2051
aVnickhodge
p2052
aVbbastra
p2053
aVmichaelmeinhardt
p2054
aVphil801
p2055
aVlouisserge
p2056
aVelisabettasilvestrin
p2057
aVdarrenorourk
p2058
aVkaihattendorf
p2059
aVdimillian
p2060
aVrobbyvee
p2061
aVlimmonica
p2062
aVsmoblogger
p2063
aVzakinko
p2064
aVtravelinkindia
p2065
aVnatureday
p2066
aVdailynewyorker
p2067
aVpizbola
p2068
aVsergebl
p2069
aVseoitalytweets
p2070
aVmevlt7
p2071
aVthira
p2072
aVroywells
p2073
aVchiilyne
p2074
aVantic
p2075
aVyorik
p2076
aVcopedog
p2077
aVromaindelacroix
p2078
aVbrosenth
p2079
aVyukaichou
p2080
aVdankurry
p2081
aVricoswaff1
p2082
aVtorres20102010
p2083
aVned1339
p2084
aVvirtualcallcenter
p2085
aVphildearson
p2086
aVshavereview
p2087
aVbnance
p2088
aVtinystone
p2089
aVloverbox
p2090
aVinterestingplaces
p2091
aVqiaoxiaojun
p2092
aVdjkatman
p2093
aValicantevive
p2094
aVmarkgammon
p2095
aVjohannthedog
p2096
aVcfistoll
p2097
aVdkons
p2098
aVcopywryter1
p2099
aVnoddy54
p2100
aVtrendsmitter
p2101
aVjmarquismusic
p2102
aVnickospi
p2103
aVzlemahin1
p2104
aVmervikhaums
p2105
aVcyberangel
p2106
aVgaroocii
p2107
aVshaggyj
p2108
aVbennyblack
p2109
aVclyne
p2110
aVdjc8080
p2111
aVnjauction
p2112
aVonomatopoeia
p2113
aVkevinhayes
p2114
aVallanjenkins
p2115
aVleshtanski
p2116
aVkrugovorotdeneg
p2117
aVoriginwbc
p2118
aVdavidmullen
p2119
aVedcabellon1
p2120
aVarsepoetica
p2121
aVleonaltro
p2122
aVtopicm
p2123
aVhangfromthefloor
p2124
aVarpaouza
p2125
aVpaulnaphtali
p2126
aVedolma
p2127
aVsam121
p2128
aVbestboyz
p2129
aVburnthebellyfat
p2130
aVnihatsolmaz
p2131
aVjavaj9
p2132
aVkulesa
p2133
aVboyakutusu
p2134
aVpetervesterbacka
p2135
aVladyjunk
p2136
aVscuolacomics
p2137
aVstevenfrazer
p2138
aVkulesh
p2139
aVbasakbaris
p2140
aVmoneymanshaw
p2141
aVkristiewells
p2142
aVzor
p2143
aVdevrimbuyuker
p2144
aVcedorsett
p2145
aVlunareclipse
p2146
aVdairydino
p2147
aVstern22
p2148
aVgkc
p2149
aVmayer
p2150
aVmanuelalejandronunez
p2151
aVanitatusch
p2152
aValessandrorustici
p2153
aVumairmohsin
p2154
aValexotas
p2155
aVhellokinsella
p2156
aVfarflungmedia
p2157
aVscottgw03
p2158
aVmmarash
p2159
aVkaisercrazy
p2160
aVpariscomlight
p2161
aVrobm06
p2162
aVcftrnet
p2163
aVtheburmazone
p2164
aVffasfmregsdhsd
p2165
aVdjlazarides
p2166
aVmarcbt
p2167
aVaniolew
p2168
aVmichaelfreeland
p2169
aVdomfosnz
p2170
aVsdjoseph
p2171
aVbkrctn
p2172
aVcindywmorrison
p2173
aVjshmrsn1
p2174
aVlenapinews
p2175
aVefheee
p2176
aVmikesorgatz
p2177
aVch1cala
p2178
aVjgurskih
p2179
aVvisualsage
p2180
aVjessicakarl
p2181
aVquincyntuli
p2182
aVsemihgokyer
p2183
aViskw
p2184
aVjoydeepbhattacharya1
p2185
aVcampaniashop
p2186
aVzentinal
p2187
aVwinehiker
p2188
aVedithibloom
p2189
aVklettenhofer
p2190
aVcbcashanswer
p2191
aVchaussettegrenadine
p2192
aVsashahalima
p2193
aVkerryatma
p2194
aVdemirons
p2195
aVmeltonm
p2196
aVsarahormon
p2197
aVjtmarkow
p2198
aVcitraayoe
p2199
aVlibertic
p2200
aVarticlewriterforhire
p2201
aVskairam
p2202
aVylmzklksz
p2203
aVhutchins
p2204
aVwync
p2205
aVjakuuub
p2206
aVkrilic
p2207
aVlocalscoupons1
p2208
aVsyln
p2209
aVdedibibi
p2210
aVorkuntsuk
p2211
aVfurkaner
p2212
aVsyls
p2213
aVmarialba23
p2214
aVgoldbrave1907
p2215
aVabidinkaya
p2216
aVnetmanski
p2217
aVdangrsmind
p2218
aVdjdagger
p2219
aVheidikruger
p2220
aVfuturistika
p2221
aVplastischchirurg
p2222
aVmaebeltranjamolin
p2223
aVyonjamedia
p2224
aVfsreal
p2225
aVbooksconnect
p2226
aVoktayozkan
p2227
aVpim1
p2228
aVmcteach
p2229
aVboomblitz
p2230
aVashleycharlton
p2231
aVvidkid
p2232
aVjayceelady
p2233
aVkeremboyaci
p2234
aVcharlesmhelton
p2235
aVmorganhaley
p2236
aVvitreoushumor
p2237
aVricecom
p2238
aVcaglar1903
p2239
aVthehousewife
p2240
aVarticlepostrobot
p2241
aVazoff
p2242
aVlucaslshaffer
p2243
aVkiaura
p2244
aVquadmod
p2245
aVandreaprestana
p2246
aVmustafakonar
p2247
aVservicebox
p2248
aVdlrdilaraaa
p2249
aVayhanucarmynet
p2250
aVrainerthiel
p2251
aVarnaudbrin
p2252
aVripmaw
p2253
aVlimprenditore
p2254
aVmicberryman
p2255
aVdtunkelang
p2256
aVplinkoguy
p2257
aVjamesalvord
p2258
aVhseyin6
p2259
aVscottivey
p2260
aVcarlwebb
p2261
aVeglue
p2262
aVmsadik
p2263
aVaprireunbar
p2264
aVjeninden
p2265
aVizual
p2266
aVmccryz
p2267
aVpurelypurses
p2268
aVshoesofimagination
p2269
aVpropertypillar
p2270
aVakyip
p2271
aVdeborahsantinelli
p2272
aVbulgarin
p2273
aVwebook
p2274
aVargoairways
p2275
aVharihara01
p2276
aVibrahimyk
p2277
aVcarlouellet
p2278
aVfreepokermoneyonline
p2279
aVvandyll
p2280
aVbulgaria
p2281
aVchipgriffin
p2282
aV497497
p2283
aVseogeeker
p2284
aVsoylentjames
p2285
aVtenfu2tea1
p2286
aVjeremymuncy
p2287
aVvivereosimo
p2288
aVsebemelikesi
p2289
aVsaralynnwallin
p2290
aVmanibabu
p2291
aVcurtmaly
p2292
aVrobert29
p2293
aVyusufgencer
p2294
aVwendylwood
p2295
aVmatildeparis
p2296
aVshallyd
p2297
aVdrd57
p2298
aVthebaumgroup
p2299
aVdexter
p2300
aVozgurd
p2301
aVmanugino
p2302
aVozguro
p2303
aVjustinsam
p2304
aVsuccesstrack
p2305
aVozgurl
p2306
aVrwirtz
p2307
aVrobertfreedland
p2308
aVsalimyakub
p2309
aVclbuchanan
p2310
aVianmortgagechoice
p2311
aVdoerrman
p2312
aVjasongale2
p2313
aVrevbilly
p2314
aVbypasscensor
p2315
aVtermabbi
p2316
aVchrismessina
p2317
aVthereeds44
p2318
aVsetenayhatoolu
p2319
aVjeromebarnes
p2320
aVbvlad
p2321
aVcornerscribe
p2322
aValexmerono
p2323
aVcooldinode
p2324
aVblogger1000
p2325
aVtsuj
p2326
aVbamsales
p2327
aVkulturaprava
p2328
aVyellville
p2329
aVmiketrap
p2330
aVararableo
p2331
aVh4run
p2332
aVsamkole
p2333
aVsandrafdzh
p2334
aVsarlobenimlan
p2335
aVcraiglotter
p2336
aVmycophage
p2337
aVmehmettiltay
p2338
aVsophiecox
p2339
aVunsmiling
p2340
aVleifn
p2341
aVsimoneb
p2342
aVpowerwomenmag
p2343
aVemburke
p2344
aVgmaryraspe
p2345
aVtarafindlay
p2346
aVtenutafarne
p2347
aVsimonej
p2348
aVisraelmuse
p2349
aVpalefirer
p2350
aVchrissonjeow
p2351
aVdadashi1
p2352
aVrocksowicked
p2353
aVpix143
p2354
aVallenkelly
p2355
aVeugeniamorato
p2356
aVdavegraham
p2357
aVffvc
p2358
aVgabrieledilucia
p2359
aVsamvel72
p2360
aVtompick
p2361
aVnecatisentrk
p2362
aVtimbednar
p2363
aVshakolo
p2364
aVpolr
p2365
aVmariebizwiz
p2366
aVdascgo
p2367
aVkalbtoush96
p2368
aVdanhamilton
p2369
aVgrahamfrancis
p2370
aVberna16351
p2371
aVrutun
p2372
aVmamona
p2373
aVphoto2
p2374
aVpaulomarketing
p2375
aVdouglasjohnston
p2376
aVsmallbizally
p2377
aVtmw1
p2378
aVabhinavimmi
p2379
aVgrkemkalpclar
p2380
aVdjconway
p2381
aVvittoriogubbiotti
p2382
aVcynophagie
p2383
aVmarconi211
p2384
aVelifselli
p2385
aVvlb1
p2386
aVrahmividinlioglu
p2387
aVzhatie
p2388
aVmomzageek
p2389
aVfemminilesingolare
p2390
aVlucasilenzi
p2391
aVwess
p2392
aVadabykovskaya
p2393
aVmrpenguino
p2394
aVjasonwert
p2395
aVblondebydesign
p2396
aVleolaksi
p2397
aVedgery
p2398
aVstemcelllist
p2399
aVyigitdarcin
p2400
aVztomiolo
p2401
aVmeganeou
p2402
aVdarrylwilliamcrawford
p2403
aVufukselcuk
p2404
aVademy
p2405
aVoncugursoy
p2406
aVluigilupo
p2407
aVmarcmarseille
p2408
aVmagelanggetuk
p2409
aVpmcgovern
p2410
aVvochkun
p2411
aVjwbanks
p2412
aVunm00red
p2413
aVlimbomusic
p2414
aVihsanka
p2415
aVmarkatighe
p2416
aVaryehalex
p2417
aVcherrycetta
p2418
aVaxelculver
p2419
aVblackburnfoot
p2420
aVseyfullahaslan
p2421
aVmusakono
p2422
aVredpencilediting
p2423
aVjimmyanderson1
p2424
aVhemmeter
p2425
aVeddylee123
p2426
aVcelentanofrancesco
p2427
aVbreakoutstocks
p2428
aVpietroizzo
p2429
aVrichtucker
p2430
aVfangchengyan
p2431
aVtommccomb
p2432
aVplantservices
p2433
aVtristaibo
p2434
aVkanikasingh
p2435
aVmsingleton
p2436
aVjuliegibbons
p2437
aVddonat
p2438
aVamericanshiping
p2439
aVtaughnee
p2440
aVtikesplate
p2441
aVmetinerdoan
p2442
aVsonu7668
p2443
aVhectorguarez
p2444
aVbobzzg
p2445
aVrobertostrozzi
p2446
aVbethtuttle1
p2447
aVsehzademedyaci
p2448
aVarkofhope
p2449
aVwistop
p2450
aVmicovillasenor
p2451
aVpolizeros
p2452
aVufukcizgisi
p2453
aVmsadvertising1
p2454
aVsharonglassman1
p2455
aVlevisandmichael
p2456
aValexebel
p2457
aVcnetfrance
p2458
aVfrasco
p2459
aVlestudio1
p2460
aVhandmadesoap1
p2461
aVsadeghkiyanori
p2462
aVinventionpatenting
p2463
aVjoetv
p2464
aVsf19
p2465
aVnellypaekukui
p2466
aVgetcosyanaljobs
p2467
aVtechnology
p2468
aVoncletom
p2469
aValifity
p2470
aVetcetc
p2471
aVsimplydishing
p2472
aVjagier
p2473
aVweashell
p2474
aVlunaloran
p2475
aVjodimardesich
p2476
aVwilliamward
p2477
aVmagtam
p2478
aVdeehathaway
p2479
aVfilmalert
p2480
aVseductionlingerie
p2481
aVtelephant
p2482
aVvlampomeister95
p2483
aVroutecoder
p2484
aVafds
p2485
aVmegagiguge
p2486
aVskrythe
p2487
aVamygdala1
p2488
aVmacdivaona
p2489
aViamabhi
p2490
aVperamuzik
p2491
aVliviolamattina
p2492
aVfacebuying
p2493
aVjanetdeguer
p2494
aVcrudeoiltrader
p2495
aVglosticks
p2496
aVtnwmatt
p2497
aVminasydney
p2498
aVsidewaysnews
p2499
aVvalerieevemoreau
p2500
aVembedgames1
p2501
aVbajanfan
p2502
aVadach
p2503
aVscottbeau
p2504
aVdangrossman
p2505
aVjohnnyswing
p2506
aVbagslag
p2507
aVbestebookz
p2508
aVamessegee
p2509
aVayekumolu
p2510
aVwongwing
p2511
aVmikerosenberg
p2512
aVdesiredupas
p2513
aVdanoyang
p2514
aVsevcance
p2515
aVyusuf101
p2516
aVakafurious
p2517
aVmorioffice
p2518
aVbloggeron
p2519
aVmrtarzan
p2520
aVburakkes
p2521
aVjianshuo3
p2522
aVsmellytherat
p2523
aVsydneywedding1
p2524
aVchristypeace
p2525
aVgauravmishra
p2526
aVsocialpmchick
p2527
aVilkerk
p2528
aVvittoriax
p2529
aVemij79
p2530
aVryokan
p2531
aVabetterstay
p2532
aVunderblueprint
p2533
aVcammack
p2534
aVbenimarudo
p2535
aVewealth247
p2536
aVbgekoeln
p2537
aVpollyfashion
p2538
aVschlotzskysturkiye
p2539
aVccamera
p2540
aVps3crowd
p2541
aVtowercpet
p2542
aVuoflcardgame
p2543
aVchrastka
p2544
aV1ron
p2545
aVmoritzadler
p2546
aVthecellhub
p2547
aVmetalerik
p2548
aVselasselahattin
p2549
aVmaamott
p2550
aVlekhni
p2551
aVcasedakid
p2552
aVgurcanserbest
p2553
aVbpandya
p2554
aVchrismautz
p2555
aVaveryhalfon
p2556
aVautkin1
p2557
aVnunusdan
p2558
aVsilis
p2559
aValexlawrence
p2560
aVsuntao
p2561
aVsycophante
p2562
aVtailstream2nd
p2563
aVdeepwarren
p2564
aV0xscn
p2565
aVhallmarktravels
p2566
aVfenng
p2567
aVtuner3601
p2568
aVdevrimdemirel
p2569
aVreima1
p2570
aVgreatnetworking
p2571
aVstephaniescherer
p2572
aVonlineentertainment
p2573
aVhalbuki
p2574
aVkellysims
p2575
aVxavieryy
p2576
aVbunver
p2577
aVzyzyzwy
p2578
aVemakbaba
p2579
aVandreame
p2580
aVstevet
p2581
aVsudba
p2582
aVabsolutetoday
p2583
aVbemyapp
p2584
aVrivrain
p2585
aVtoy4kids
p2586
aVfaithx5
p2587
aVdnorton
p2588
aVcihanturk
p2589
aVtanfer
p2590
aVrusskie
p2591
aVanwarvazquez1
p2592
aVwhoisvaibhav
p2593
aVipbaseadsbase
p2594
aVergoturkiye
p2595
aVarjunkorveni
p2596
aVcutedrishti8
p2597
aVmassimilianoturci
p2598
aVcnd1
p2599
aVfaircompanies
p2600
aVjanvanmol
p2601
aVnicholaswyoung
p2602
aVresidenciaovida
p2603
aVismaildenizylan
p2604
aVmjdeknayilhan
p2605
aVenricgilgarcia
p2606
aVnmaheswaran19811
p2607
aVkovalenkovitaliy
p2608
aVlucianabittencourt
p2609
aVquatzacoalt
p2610
aVtommasoederoclite
p2611
aVandreabattisti
p2612
aVtexaspolitics
p2613
aVmsrobot0
p2614
aVjobrookspr
p2615
aVtuuli
p2616
aVquetzalquatl
p2617
aVserverless
p2618
aVazizhp
p2619
aVsamoliver1
p2620
aVbrandyou
p2621
aVsannemiadk
p2622
aVintunemedia
p2623
aVmehrshadpezeshk
p2624
aVrabaya
p2625
aVfranckpoisson
p2626
aVtlwhitford
p2627
aVfatihgurcan
p2628
aVfasew89
p2629
aVedom
p2630
aVlemoor
p2631
aVaaronvh
p2632
aVforehand
p2633
aVplay2rich1
p2634
aVaytacyildiz
p2635
aVmatrixdebtrelief
p2636
aVrotjong1
p2637
aVsnagfly
p2638
aVchristiansteenjensen
p2639
aVjohntrav
p2640
aVplanemprendedor
p2641
aVreachstudents
p2642
aVmarkdot1
p2643
aVadrianbold
p2644
aVdansumption
p2645
aVgrantnieddu
p2646
aVarminiemi
p2647
aVauldhouse
p2648
aVzubapita
p2649
aVpeggymccoll
p2650
aVvkamutzki
p2651
aVjimpatterson1
p2652
aVomarcaf
p2653
aVozgeaydn
p2654
aVgellint
p2655
aVgwenaellett
p2656
aVkobier
p2657
aVeroshik
p2658
aVconstancecory
p2659
aVbrianbreslin
p2660
aVchiconomics
p2661
aVgodeck
p2662
aVjoefresco
p2663
aVjmunn
p2664
aVak1k0
p2665
aVmanosankarv
p2666
aVjerrym1
p2667
aV71star
p2668
aVsiobhanobrien
p2669
aVpyoupe
p2670
aVpaheyoh
p2671
aVfndrsroundtable
p2672
aVthebrooklynnomad
p2673
aVthetopnews
p2674
aVdatavista
p2675
aVergunbso
p2676
aVmacari1
p2677
aVbrandipowers
p2678
aVlucyjones
p2679
aVnilayen
p2680
aVokyoussef
p2681
aVtreasures239
p2682
aVdavbunnell
p2683
aVanilozturk
p2684
aVhimanshugupta
p2685
aVpoberailo
p2686
aVdilaracandemir
p2687
aVwidgetwoman
p2688
aVrogerkondrat
p2689
aVtobiakazmer
p2690
aVschierling
p2691
aVcoreidea
p2692
aVandrewrondeau
p2693
aVbanudnmez
p2694
aVmobin313
p2695
aVbairhalter
p2696
aVsaschakrause1
p2697
aVclaireinparis
p2698
aVtanom1968
p2699
aValishaneuron
p2700
aVgiane69
p2701
aVsinamoosavi
p2702
aVwangshi
p2703
aVablazetraffic
p2704
aVbrandybrook
p2705
aVpeggydiedrichs
p2706
aVnoisywolf
p2707
aVbarbarafeldman
p2708
aVrobbieprofeta
p2709
aVesmailjaffari
p2710
aVtheprogrammerguy
p2711
aVgemagarrido
p2712
aVbrad2008
p2713
aVanointingwaters
p2714
aVrosso
p2715
aVumepapa
p2716
aVpurimontaes
p2717
aVmetrodetroitwholesaler
p2718
aVrobmcphillips
p2719
aVjordireche
p2720
aVarizamvarttnet
p2721
aVgirovolando
p2722
aVjulieegordon
p2723
aVtreyp
p2724
aVstefanholmes
p2725
aVagenturnussknacker
p2726
aVforrestkobayashi
p2727
aVpenkopassus
p2728
aVubankx
p2729
aVbigo4u2
p2730
aVventurebeat
p2731
aVmodelingpassion
p2732
aVbriantrice
p2733
aVcj13
p2734
aVproyectopuchero
p2735
aVginitux
p2736
aVkeikonaito
p2737
aVjackwin
p2738
aVzebpalmer
p2739
aVfcoetsee
p2740
aVyrinca
p2741
aVnicolabandoni
p2742
aVclaudiavallejo
p2743
aVnetmedianer
p2744
aVbluesband
p2745
aVgkedinler
p2746
aVdanavan
p2747
aVsaric
p2748
aVmrtopf
p2749
aVerinburnett
p2750
aVtiagoj
p2751
aVsarii
p2752
aVparasites
p2753
aVaaronwagner888888
p2754
aVerikboles
p2755
aVsario
p2756
aVdavidjpeterson
p2757
aVberfberfberf
p2758
aVstuartmcintyre
p2759
aVkompo
p2760
aVlakshmi3
p2761
aVmonopoly
p2762
aVveen
p2763
aVsandiep26
p2764
aVtripa
p2765
aVludica
p2766
aVkwameoh
p2767
aVanimalherders
p2768
aVtheprint
p2769
aVtripw
p2770
aVsavasten
p2771
aVmelanieca
p2772
aVfairyvisions
p2773
aVgreggslapak
p2774
aVfenasi5
p2775
aVpeterwarnock
p2776
aVmortonfox
p2777
aVpeterzmijewski
p2778
aVkosekul
p2779
aVsunstar1
p2780
aVjohnbeckreview
p2781
aVmollieking
p2782
aVpckolog
p2783
aVaqubi
p2784
aVfeartox
p2785
aVhuynhtich
p2786
aVgmnextguy
p2787
aVthemixtressdjdiva
p2788
aVmundy
p2789
aVsamihazinses
p2790
aVpodchef
p2791
aVwpcookies
p2792
aVangiedor
p2793
aVv7foto
p2794
aVvdetena
p2795
aVlenawasserman
p2796
aVmatthewebel
p2797
aVyogi
p2798
aVkarinaguerra
p2799
aVyourpowervideos
p2800
aVblaslomibao
p2801
aVupsideup
p2802
aVstarryknight
p2803
aVbhavishya
p2804
aVdrtygrl
p2805
aVademcici
p2806
aVyzy
p2807
aVimazine
p2808
aVlacarmina
p2809
aVippocampo
p2810
aVajericks
p2811
aVtntcoach
p2812
aVenvironmentalmoms
p2813
aVmediakamp
p2814
aVjmikesmith1
p2815
aVchenjianyuan
p2816
aVsunnywen
p2817
aVweeweecute
p2818
aVchrischabot
p2819
aVececanbolat
p2820
aVgyrus
p2821
aVkatiemoore
p2822
aVonemoreshopping
p2823
aVmihoakamimo
p2824
aVsection1guy
p2825
aVwhygo
p2826
aVpennyst0ckrumor
p2827
aVgusmoonfoot
p2828
aVhiddenground
p2829
aVseksoloji
p2830
aVylebout
p2831
aVgokseloktay
p2832
aVthoro
p2833
aVrstonecipher
p2834
aVshaneh
p2835
aVbob80853
p2836
aVvabisin
p2837
aV1michaelwilson
p2838
aVuhlenbrockus
p2839
aVerkanerden2
p2840
aVattilacsordas
p2841
aVmrhodge
p2842
aVdanikuz
p2843
aV1001tricks
p2844
aV2112starman
p2845
aVweerdt
p2846
aVcourtneyp
p2847
aVaprildunford
p2848
aVdalewild
p2849
aVkalidor
p2850
aVkatmandukivisi
p2851
aVnewenglandlive
p2852
aVtext100holland1
p2853
aVhypercasey
p2854
aVcoreykgraham1
p2855
aVgnugnor
p2856
aVrluna
p2857
aVeda
p2858
aVjustinparks
p2859
aVaidaofnubia
p2860
aVdatruss
p2861
aVpetrova
p2862
aVgfry
p2863
aVdanjoubert
p2864
aVnors
p2865
aVjamamuyo
p2866
aVelainejames
p2867
aVjasonheilman
p2868
aVleadsleap
p2869
aVpeleray
p2870
aVipanter
p2871
aVkeptcache
p2872
aVkanalizasyon
p2873
aVankarasosyete
p2874
aVbethkilpatrick
p2875
aVtoninofe
p2876
aVpuedotocarguitarra
p2877
aVghasedak22
p2878
aVstarsearchcasting
p2879
aVcpye
p2880
aVtraslavina
p2881
aVrachelhrinkomunroe
p2882
aVgeniusbyosmosis
p2883
aVpdwsm
p2884
aVrasimsadikoglu
p2885
aValibrown
p2886
aVbobfurst
p2887
aVozcartman
p2888
aVcourtney7
p2889
aVlazycrazy
p2890
aVbobafett
p2891
aVdanshargel
p2892
aVpropertysyndication
p2893
aVjaythornton000
p2894
aVmaxmidnight
p2895
aVripupmabe
p2896
aVpopdater
p2897
aVhakanakkal
p2898
aVsevincem
p2899
aVmahboobe
p2900
aVucla4me1
p2901
aVyusuf102
p2902
aVkaanada
p2903
aVdanijelacancarevski
p2904
aVfar1983
p2905
aVdoaelifolgun
p2906
aVtoruiijima
p2907
aVpharmamfg
p2908
aValexanderfog
p2909
aVactiveteam
p2910
aVrdwatkins
p2911
aValexab
p2912
aVapeneranda
p2913
aVadina
p2914
aVplusdefric
p2915
aVsminkworks
p2916
aVmynameiskate
p2917
aVmustafaakinci
p2918
aVoregonyankee
p2919
aVmocalog
p2920
aVmatematiktutkusu
p2921
aVwaynema
p2922
aVliquidskymedia
p2923
aVglobenet
p2924
aVyudukiyo
p2925
aVfuturistique
p2926
aVepctweets
p2927
aVpatrickkwarteng
p2928
aVtvterminator
p2929
aVhannybald
p2930
aVatulkumarkashyap
p2931
aVinkcartridge
p2932
aVashlijewelers
p2933
aVmartinastewart
p2934
aVwhmsa1
p2935
aVharshi
p2936
aVheheboy
p2937
aVgenealjunky
p2938
aVanimeshsarkar
p2939
aVpudiramakrishna
p2940
aVmagino85
p2941
aVfoomandoonian
p2942
aVfeedbackersbiz
p2943
aVthehocca
p2944
aVmanoogalum
p2945
aVnona8
p2946
aVfuckingcredible
p2947
aVdougjohnsonsd
p2948
aVgdlevy1
p2949
aVsoaresflipper
p2950
aVjwbergmann
p2951
aVallenstern
p2952
aVpalmettodreams
p2953
aVaaronayotte
p2954
aVliberalviewer11
p2955
aVjeffmadison
p2956
aVaghost
p2957
aVelenaswane
p2958
aVorbitingstudio
p2959
aVgetmanufacturingjobs
p2960
aVnorumba
p2961
aVmertkarakuzu
p2962
aV9dimension
p2963
aVcrapmonkey
p2964
aVpgbkruit
p2965
aVnoticiatras
p2966
aVotou
p2967
aVflorianfiegel
p2968
aVmicheleforoni
p2969
aVkmskala
p2970
aVjferrero2
p2971
aVcocalcoder
p2972
aVgertvollrath
p2973
aVlynnellen
p2974
aVkahuseki
p2975
aVlauradlv
p2976
aVshindigz
p2977
aVechoebusiness
p2978
aVbuyerdude
p2979
aVhandegulcan
p2980
aVnonam
p2981
aVgusfischer
p2982
aVsyurteri
p2983
aVkuselver
p2984
aVmalcolmprada
p2985
aVsergeyzadachin
p2986
aVfaustinuspurwanggo
p2987
aVgreengoer
p2988
aVaaronmarsell
p2989
aVjohcavalcanti1
p2990
aVbayramali2
p2991
aVautobodyconsultinggroup
p2992
aVsamgreenfield
p2993
aVcarlosalbertoorozcobenju
p2994
aVolhernandez
p2995
aVatulvhale
p2996
aVlorivaldez
p2997
aVcorbettbarr
p2998
aVmrsth
p2999
aVserkmutlu
p3000
aVmjgmrktng
p3001
aVhollywoodreeltoreal
p3002
aVwogan
p3003
aVkarenpery
p3004
aVwogab
p3005
aVjzabalo
p3006
aVsimakat
p3007
aVviktorcea
p3008
aVnielspeter
p3009
aVwildcat
p3010
aVkarinber
p3011
aVdrchir
p3012
aVtrippyz
p3013
aVbehroozina
p3014
aVrichardburl
p3015
aVlinkstraffic
p3016
aVavirtualbiz
p3017
aVmiriambenke
p3018
aVtweehtah
p3019
aVsaidbaser
p3020
aVsadiejemmett
p3021
aVkristaneher
p3022
aVmuzikolog
p3023
aVsenbuono4lg
p3024
aVblockedmind
p3025
aVmoturenko
p3026
aVstrahovochka
p3027
aVteresahoelle
p3028
aVpradeepsingh
p3029
aVjasondbarr
p3030
aVmattsf
p3031
aVjensjoseph
p3032
aVjason23z
p3033
aVabigailjohnson
p3034
aVapothecaryjeri
p3035
aVhorrornews
p3036
aVmanishseoxpert
p3037
aVlivconturkiye
p3038
aVtkoapps
p3039
aVmelihbayramdede
p3040
aVmarinemarchande
p3041
aVchocol8lady
p3042
aVmoonmoon247
p3043
aVi196
p3044
aVkairos1
p3045
aVmauropennone
p3046
aVbbthy
p3047
aVjustvinz
p3048
aVlizrose91
p3049
aVamazingnewslettersystem
p3050
aVnkaulfuss
p3051
aVmassimoscorretti
p3052
aVpamhockensmith
p3053
aVbilelessid
p3054
aVtovarishch
p3055
aVshlomiko1
p3056
aVbuzzmoneyonline
p3057
aVadero
p3058
aVrinnehiryuu
p3059
aVwickedhottie
p3060
aVfiliztopaloglu
p3061
aVsmalljones
p3062
aVnycityeats
p3063
aVedromson
p3064
aVumitnamli
p3065
aVantonioorbe
p3066
aVlemunbuka
p3067
aVleary
p3068
aVfredygamer
p3069
aVamygeek
p3070
aVoliverkohl
p3071
aVchrisdenker
p3072
aVbrittselvitelle
p3073
aVwwahhmpreneur
p3074
aVmarkuseder
p3075
aVchengings
p3076
aVmaryforrest
p3077
aVepikairo
p3078
aVkongge
p3079
aVstuartgray
p3080
aVvalentinadaniele
p3081
aVperegrineisland
p3082
aVgranfjsh
p3083
aVelmagos
p3084
aVlevysoft
p3085
aVfyxer
p3086
aVdustymoore81
p3087
aVvetinari
p3088
aVsantosh
p3089
aVsheriaricherson
p3090
aVcyr1us
p3091
aVmaryakhan32
p3092
aVrichardbotley
p3093
aVbonder
p3094
aVclippernolan
p3095
aVscottrozic
p3096
aVandylee
p3097
aVxmorph
p3098
aVe140tweets
p3099
aVumutertugan
p3100
aVsoraya1973
p3101
aVkarenbk
p3102
aVceysucansukastarl
p3103
aVladdidhillon
p3104
aVchrisczura
p3105
aVbobsilverberg
p3106
aVwolkenform
p3107
aV2tausend3
p3108
aVlaserlover
p3109
aVonholdmusicindia
p3110
aVyenimecra
p3111
aVfrausimo
p3112
aVkentnichols
p3113
aVmuratbilgeman
p3114
aVharmonicthought1
p3115
aVtracyroberts
p3116
aVmattpippen
p3117
aVlisajd
p3118
aVhackerthedude
p3119
aVm329
p3120
aVfreewaresymbian
p3121
aVaphughes
p3122
aVigorsidorov
p3123
aVjennyeatwell
p3124
aVhigley
p3125
aVedohen
p3126
aVcindyerodriguez
p3127
aVptzn
p3128
aVferpiet
p3129
aVkhorovatin
p3130
aVlouwebber
p3131
aVconvivialdesign
p3132
aVyoumeyoume
p3133
aVdavidherrold
p3134
aVsaglikaktuel
p3135
aVbrotherjesse
p3136
aVesiparis
p3137
aVezgileventzokutucu
p3138
aVnealchambers
p3139
aVrakikulkalb
p3140
aVkirkgsworld
p3141
aVsarahaslam
p3142
aVdannevirkelibrarian
p3143
aVokanozeren
p3144
aVbobkrause
p3145
aVevelynkalinosky
p3146
aVdtad
p3147
aVendkonsument
p3148
aVdaichiman
p3149
aVmariannealdrich
p3150
aVoykukarahan
p3151
aVdaven
p3152
aVzlatathoughts
p3153
aVstolidimran
p3154
aVbruky
p3155
aVmadmedya
p3156
aVtoocheap1
p3157
aVbenjamingoss
p3158
aVdhg4
p3159
aVgorkemgumustekin
p3160
aVdylan555
p3161
aVkrybabylesite
p3162
aVnihaneren
p3163
aVfeedpaul
p3164
aVsorinelb
p3165
aVjodvody
p3166
aVcadcrowd
p3167
aVplanetill
p3168
aVstfakademi
p3169
aVdarkbls
p3170
aVmrdkl
p3171
aVsandywright
p3172
aVeraserhaikus
p3173
aVchrisek1
p3174
aVserhatgule
p3175
aVinternetrepmgmt
p3176
aVscotu
p3177
aVsusan6
p3178
aVrocionunez
p3179
aVjmctigue
p3180
aVhouseconcerts
p3181
aVtugrul3
p3182
aVrpa2501
p3183
aVkeian1
p3184
aVduyguktl
p3185
aVbilaltolgadasdemir
p3186
aVfabiochito
p3187
aVtatyanagann
p3188
aVkangno1
p3189
aVkbateman
p3190
aVslobgrush
p3191
aVisaak
p3192
aVmarthaisela
p3193
aVadisaan1
p3194
aVentertainclub
p3195
aVtoddwaller
p3196
aVonlinemktgbyron
p3197
aVisaac
p3198
aVbrianmsmith
p3199
aVtmoenk
p3200
aVkevinmcfall
p3201
aVthreepennie
p3202
aVvedatk
p3203
aVpelinkaradag
p3204
aVerrolwilliams
p3205
aVaked222002
p3206
aVadvany1
p3207
aVzeynepbent
p3208
aVtakk826
p3209
aVlastatemuseum
p3210
aValenaoleynik
p3211
aVshelbycarr
p3212
aValbertpujol
p3213
aVstephenandrewlynch
p3214
aVzalim781
p3215
aVpokrovle
p3216
aVsusant
p3217
aV7788de
p3218
aVmazziottimedia
p3219
aVmagmasal
p3220
aVgreenkaktusx
p3221
aVgwake
p3222
aVkieransmith
p3223
aVdavidbass
p3224
aVdesafashion
p3225
aVmarkzabala
p3226
aVjpmoses
p3227
aVvictoriamdq
p3228
aVpaxpax
p3229
aVefehizir
p3230
aVshuaib19
p3231
aVluigipasserino
p3232
aVjameslee524
p3233
aVriekorin
p3234
aVdidlestown
p3235
aVprembaweja
p3236
aVyasemingurkan
p3237
aVrobquig
p3238
aVefe20
p3239
aVshinyplastic
p3240
aVcarbon00
p3241
aVgaryscottmartin
p3242
aVashihata
p3243
aVmwesch
p3244
aVikuzel
p3245
aVwhadonce
p3246
aVnchintada
p3247
aVtonyburnett
p3248
aVmicheleluconi
p3249
aVhasanvurgun
p3250
aVutkuuu
p3251
aVsecondome
p3252
aVcenkhasdal
p3253
aVoguzizgi
p3254
aVtimmebisgaardmunk
p3255
aVvoronovd
p3256
aVozbekmuo
p3257
aVarashh
p3258
aVvedatbaykay
p3259
aVjencaple
p3260
aVumiyosh
p3261
aVjaweer1
p3262
aVgroovytimz
p3263
aVazeem
p3264
aVjupspot
p3265
aVtrktu
p3266
aVjudmackrill
p3267
aVedthomas
p3268
aVwhitezeynep
p3269
aVsercanyilmaz
p3270
aViluvatareru
p3271
aVdenali1a
p3272
aVmguhlin
p3273
aVgaetano83
p3274
aVstefanobandini
p3275
aVkenwork
p3276
aVshannonrtw
p3277
aVbencrox
p3278
aVpopkulturjunkie
p3279
aVretweeton
p3280
aVeffata
p3281
aVttugcee
p3282
aVtutoring4u
p3283
aVmartinkalus
p3284
aVnataliazvorigina
p3285
aVshahrirhjahmad
p3286
aVmlvalentine
p3287
aVglenn1
p3288
aVmag26
p3289
aVulrikafalk
p3290
aVmarkbcohen
p3291
aVroyvid
p3292
aVetcetera
p3293
aVryonations
p3294
aVdmacmarketman
p3295
aVchriswaterguy1
p3296
aVkaderserkanarslan
p3297
aVgogvoteam
p3298
aVsprust1
p3299
aVnatacampos
p3300
aVcigdemaydin1
p3301
aVcoreyfreeman
p3302
aVbeneker
p3303
aVimogenrayne
p3304
aVpsicihan
p3305
aVmetarobert
p3306
aVvane4ka
p3307
aVpiyatkhanna
p3308
aVrebekahking
p3309
aVwildunknown
p3310
aVeagledream
p3311
aVyonster
p3312
aVsbenglin
p3313
aVjdoublep
p3314
aVmneedham
p3315
aVrunningbiomechanics
p3316
aVtomasnihlen
p3317
aVkmaverick
p3318
aVninochi
p3319
aVsilentstorm314
p3320
aVswishnews
p3321
aVmichitux
p3322
aVhealthyolga
p3323
aVeyeronik1
p3324
aVneuroman421
p3325
aVsusanwu
p3326
aVm42jansen
p3327
aVjeffreypia1
p3328
aVrodsloane
p3329
aVmarketingmyinternet
p3330
aVclimb8
p3331
aVgidoctor
p3332
aVzjfroot
p3333
aVkdoctor
p3334
aVshmu
p3335
aVpiore
p3336
aVmusat
p3337
aVedgebio
p3338
aVhelfgott2011
p3339
aVainhoaeus
p3340
aVa4g
p3341
aVsatokoto
p3342
aVengnyksl
p3343
aVjilldaniel
p3344
aVilius
p3345
aVffg3
p3346
aVholycool
p3347
aVelioabbondanzieri
p3348
aVjudithandjim
p3349
aVismailsen16
p3350
aVsapegin
p3351
aVsadiejane
p3352
aVgardencommunity
p3353
aVhsmakkoc
p3354
aVdsampaolo
p3355
aVsaint
p3356
aVcosmeboyinc
p3357
aVbobwelcome
p3358
aVbukonserveanne
p3359
aVamst
p3360
aVglennwilliams
p3361
aVyunusemrealpozen
p3362
aVguorunzhai
p3363
aVnovamir
p3364
aVbedfeed
p3365
aVcizcik
p3366
aVnabinkm
p3367
aVrunks
p3368
aVlaliatk
p3369
aVmiralize
p3370
aVozgunkucuk
p3371
aVsamuelstadler
p3372
aVshoppingnotes
p3373
aVrujlucamel
p3374
aVersinsimek
p3375
aVtrishskram
p3376
aVsandiegoinjurylawyer
p3377
aVexiledesigns
p3378
aVdurmusu
p3379
aVmerttaylan
p3380
aVloanmarketplace
p3381
aVcozthegrov
p3382
aVanimefever10
p3383
aVllwoodard
p3384
aVtomenonaoki
p3385
aVisilisil
p3386
aVceliknasif
p3387
aVjonbecker3
p3388
aVferblog
p3389
aVphilbundy
p3390
aVblokeoldum
p3391
aVtenteco
p3392
aVigifischer
p3393
aVjakeluer
p3394
aVmanualissimo
p3395
aVdemirerencan
p3396
aVffgm
p3397
aVamanitaaverna
p3398
aVdtw
p3399
aVryansanchez
p3400
aVadamhansen
p3401
aVtrisha
p3402
aVmetricjulie
p3403
aVnikolaj
p3404
aVcamdilbericamdilberi
p3405
aVindependentbeachbodycoach
p3406
aVdavew66
p3407
aVoglek
p3408
aVcleoz
p3409
aVcaseycollins
p3410
aVnikolay
p3411
aVheartprints
p3412
aVeggog
p3413
aVsatyaa
p3414
aVblond
p3415
aVthomaspalitzsch
p3416
aVileanesmith
p3417
aVadactio
p3418
aVcolecamplese
p3419
aVcharno
p3420
aVketsangtai
p3421
aVsebastianx
p3422
aVjdawgnat
p3423
aVinfinitegraf
p3424
aVmaxsite2
p3425
aVfphantom
p3426
aVvix99
p3427
aVstarliter79
p3428
aVjoehobot
p3429
aVbigapplechannel
p3430
aVvirtuemarttemplatesorg
p3431
aVchinmc
p3432
aVew4n
p3433
aVchstuder
p3434
aVmuhammetenisbulak
p3435
aVjeremywjones
p3436
aVdrperdew
p3437
aVshinise55
p3438
aVhotelzon
p3439
aVflts
p3440
aVsimplehelp
p3441
aVsicaksutorbasi
p3442
aVborbay
p3443
aVmelosa
p3444
aVenghelab
p3445
aVsingles
p3446
aVkosuk
p3447
aVcombatrelief
p3448
aVglensheehan
p3449
aVjonmbdean
p3450
aVcarrieleber
p3451
aVjuliahartz
p3452
aVkennethjanz
p3453
aVdarkscream
p3454
aVbrianmayo
p3455
aVphill2
p3456
aVjessiejea
p3457
aVmrtricker
p3458
aVhowdyuqfoodtown
p3459
aVnick108
p3460
aVtoddgilmore
p3461
aVamirsafavi
p3462
aVyouvebeenreviewed
p3463
aVkoztik
p3464
aVpbinder
p3465
aVadultsextoystar1
p3466
aVdouder
p3467
aVwillformen
p3468
aVandrewmcelyea
p3469
aVcontentai
p3470
aVartex
p3471
aVburtonridr
p3472
aVserqan
p3473
aVhartlengroup
p3474
aVdeepsweet
p3475
aVkraldiziler
p3476
aVmzvib
p3477
aVkonechester
p3478
aVgetheintechjobs
p3479
aVaubreymcfato
p3480
aVgumusluoglu
p3481
aVidglabsnet
p3482
aVmonoxious1
p3483
aVsarahjlwest
p3484
aVjeffnew
p3485
aVcircuitopower
p3486
aVsalihsenturk
p3487
aVesarpmerkezi
p3488
aVattaweej
p3489
aVstuffin
p3490
aVsonar
p3491
aVpathguide
p3492
aVbagsnshoes2
p3493
aVnashiki
p3494
aVsteveweddle
p3495
aVbaranek
p3496
aVgreggoodwin
p3497
aVrhetoricalquery
p3498
aVthemocracy
p3499
aVhammershaug
p3500
aVrksmythe
p3501
aVjoylovewell
p3502
aVtressteaser
p3503
aVaadilpitafi
p3504
aVlauranovakovics
p3505
aVjungeliest
p3506
aVmarketingace
p3507
aVlekahe
p3508
aVrandellfever
p3509
aVcatone
p3510
aVjacobspaulsen
p3511
aVerhanates
p3512
aVchudson
p3513
aVugurclk
p3514
aVvacancesespagne
p3515
aVeminesaydam
p3516
aVmyseniorportal
p3517
aVnoizeco
p3518
aVchiefexecbear
p3519
aVromefort
p3520
aVgrom1
p3521
aVcherryrahtu
p3522
aVmelamerito
p3523
aVmohammedabdulmoneim
p3524
aVramblingverser
p3525
aVenergisto1
p3526
aVdumbassity
p3527
aVaquitaniaweb
p3528
aVypandit
p3529
aVwihe
p3530
aVjsmoovinleimert
p3531
aVleviaudenaert
p3532
aVmatthewbrown1
p3533
aVsemihaydin
p3534
aVlillivanlaar
p3535
aVnullsession
p3536
aVffmg2
p3537
aVdarakilicoglu
p3538
aVhawuda
p3539
aVjosuefontanez
p3540
aVkilbuda
p3541
aVlibertygod
p3542
aVtoyindawodu
p3543
aVsupernaturalhigh
p3544
aVrobinrichey21
p3545
aVjeniferhoward
p3546
aVguilhermeland
p3547
aVchriswalbert
p3548
aVoneafrikan
p3549
aVdavidciccone
p3550
aVadbert
p3551
aVragegirrl
p3552
aVmsmhrt
p3553
aVotayuki1
p3554
aVrizzcat
p3555
aVnataliethompson
p3556
aVvideopush
p3557
aVmehmetkurt2
p3558
aVenginozguz
p3559
aVmatteomora
p3560
aVquilovnic
p3561
aVjntkwx
p3562
aVirenedelse
p3563
aVdkmj
p3564
aVtomhaddigan
p3565
aVallis
p3566
aVtexzen
p3567
aVmackoolio
p3568
aVabhilash
p3569
aVmiwarin
p3570
aVnitiva
p3571
aVhorstnigrin
p3572
aVseinjin
p3573
aVbilgisayarmuhrisilanlari
p3574
aVdavenolan
p3575
aVmitu1
p3576
aVarsalanrostamza
p3577
aVfavonio
p3578
aVrollisfontenotiii
p3579
aVradovankavicky
p3580
aVesther17
p3581
aVriznevesht1
p3582
aValidemirci
p3583
aVismayabd
p3584
aVfukumimi
p3585
aVcappy
p3586
aVmattangello
p3587
aVmaheshwaran
p3588
aVgocodes
p3589
aVmazziepurvis
p3590
aVstephenhay
p3591
aVuzzu1
p3592
aVchrisbutts
p3593
aVatheist1974
p3594
aVanthonyjj
p3595
aVequityfeed
p3596
aVbenwatt
p3597
aVehsan1h
p3598
aVdarklordhippo
p3599
aVbrianhoney
p3600
aVnanolucifer
p3601
aVrandomwinefacts
p3602
aVdrinkdallas
p3603
aVtspeirs
p3604
aVkeiyotsumoto
p3605
aVhastac
p3606
aVedibbehxheti
p3607
aVcindykingbiz
p3608
aVbirthdaynewyork
p3609
aVjerhoyet
p3610
aVstephaniedawson
p3611
aVarianahadi
p3612
aVwilliamwomack
p3613
aVabdulmalick
p3614
aVferhancan
p3615
aVprometa
p3616
aVserkanjuju
p3617
aVandedi
p3618
aVcannedcat
p3619
aVfloweradvisor
p3620
aVomid1shahdi2
p3621
aVminek1
p3622
aVbrandonavance1
p3623
aVlasty33
p3624
aVbizmommentor1
p3625
aVzinkbonnie
p3626
aVjeana900
p3627
aVtatadraws
p3628
aVlawsense
p3629
aVebookhead
p3630
aVgurcanozkan1
p3631
aVdonald0071
p3632
aVvincentbrice
p3633
aVeksibirderece
p3634
aVberndschmitz
p3635
aVermeniisaermeni
p3636
aVmasatoyoshida1
p3637
aVdavidaprice
p3638
aVastrospacenl
p3639
aVhollywoodmomblog
p3640
aVmunirmarcoslopez
p3641
aVtolga62
p3642
aVanneishawhite
p3643
aVleeannekulcheski
p3644
aVpeme
p3645
aVjamesterdude
p3646
aVahscott
p3647
aVpemo
p3648
aVmessilionel123
p3649
aVtragemata
p3650
aVzou
p3651
aVloupickney
p3652
aVstoria
p3653
aVbridgpal1
p3654
aVekuplu
p3655
aVmonicadwilliams8
p3656
aVzanglongfei
p3657
aVagooddayforyougood
p3658
aVhjbellamy
p3659
aVmahan8
p3660
aVwilliamjsnowden
p3661
aVtushizap
p3662
aVfenner
p3663
aVwaxen
p3664
aVdevitalizart
p3665
aVozansaglam
p3666
aVthooor
p3667
aVem2905
p3668
aVelenaapproximative
p3669
aVyawetse
p3670
aVdigitaldemocracy
p3671
aVcardderbyracing
p3672
aVjackkkk
p3673
aVwajournal
p3674
aVcliftonhatfield
p3675
aVjennifernaylor
p3676
aVrachelwatson
p3677
aVkingcharles
p3678
aV7genblog
p3679
aVcansel
p3680
aVgnipgnop
p3681
aVkshipraj
p3682
aVkappachan
p3683
aVnazroll
p3684
aVserhatbicakci
p3685
aVkarenjordan
p3686
aVgabrielegranato
p3687
aVmathieuto
p3688
aVgbert
p3689
aVthemoviesclub
p3690
aVnrbnyzgn
p3691
aVnaomimarr
p3692
aVletmegrowstudio
p3693
aVjohnwynne1
p3694
aVsssports
p3695
aVkenankocaerkek
p3696
aVmicrospie
p3697
aV9j8
p3698
aVtorque
p3699
aVmaxfabrizi
p3700
aVcslewis
p3701
aVsadaf1100
p3702
aVresonate1
p3703
aVnathaliehilliot
p3704
aVokanfuturizm
p3705
aVmusicleaf
p3706
aVcarbra
p3707
aVdanielablanco27
p3708
aVramurun
p3709
aVfiru
p3710
aVaminbandeali
p3711
aVzdeveli
p3712
aVsocialcompare
p3713
aVchrisjules1
p3714
aVbonnerj
p3715
aVmcarpent
p3716
aVhgsahin
p3717
aVolacoach
p3718
aVthespiritualevolutionist
p3719
aVteronomi
p3720
aVmiketurner
p3721
aVsuzanbafford
p3722
aVahmet267
p3723
aVjerrykidd
p3724
aVgreenpythagoras
p3725
aVnerval
p3726
aVargus27
p3727
aVjeremylindh
p3728
aVcharlesteschendorf
p3729
aVmacegroup
p3730
aVkodak
p3731
aVzeynepzata
p3732
aVibrhmuysl
p3733
aVdryan
p3734
aVypsaygon
p3735
aVhochbahnvictims
p3736
aVspacecat
p3737
aVinfusiongrpllc
p3738
aVtolgasansal
p3739
aVdeeperandfaster
p3740
aVnitinjulka
p3741
aVwithblog1
p3742
aVmenareuseless
p3743
aVstormko
p3744
aVryumu
p3745
aVlucamarchi
p3746
aVsaglikliyasam
p3747
aVeheupel
p3748
aVmylifes
p3749
aVomargallaga
p3750
aVdarrenvrede
p3751
aVbeverleymerriman
p3752
aVprylen
p3753
aVdirkk0
p3754
aVmcalkin
p3755
aVheliotavares
p3756
aVkeitankuns1
p3757
aVhungryteapot
p3758
aVdiegosam
p3759
aVpalcentre
p3760
aVtravismillward
p3761
aVtriphole
p3762
aVazohba
p3763
aVnicolebo
p3764
aVdruidux
p3765
aVamustic
p3766
aVobdachlos
p3767
aVgregharris9000
p3768
aVlolfactory
p3769
aVanotado
p3770
aVclearsoap
p3771
aVdarlenesabella1
p3772
aVdondewsnap
p3773
aVvaleriovillari
p3774
aVebookguy
p3775
aVcihancengizcom
p3776
aVfujibow
p3777
aVguuss
p3778
aVslippytoad
p3779
aVnoebie
p3780
aVjenriques1
p3781
aVvjack
p3782
aVladegri
p3783
aVtpk1
p3784
aVjtownend
p3785
aVhamanabiz
p3786
aVfaveme
p3787
aVbybalsam
p3788
aVofmintz
p3789
aVdaisuketaga
p3790
aVstratogr
p3791
aVandrewlewin
p3792
aVgisuck
p3793
aVruijscosta
p3794
aVkatiestrike
p3795
aVbrandoncorbin
p3796
aVnicborg
p3797
aValperalp1
p3798
aVofpacino
p3799
aVmaryewilhite
p3800
aVserdarpehlivanoglu
p3801
aVeyesvalue
p3802
aVpapetarie
p3803
aVjonasjonsson
p3804
aVozzyatwork
p3805
aVzfatihkaratana
p3806
aVlyonenfrance
p3807
aVkeithbennettwork
p3808
aVastarchaser
p3809
aVtadstuck
p3810
aVerikabretske
p3811
aVhclmemascot
p3812
aVlclok1
p3813
aVquasarkitten
p3814
aVsaliher
p3815
aVdienneamagnews
p3816
aVsvenalike
p3817
aVsalsademika
p3818
aVarthuralston
p3819
aVqtip1423
p3820
aVicontact
p3821
aVwherespaul
p3822
aVyehudah
p3823
aVnongobi
p3824
aVtoxidlotus
p3825
aVstellem
p3826
aVtechgenii
p3827
aVfoodimentary
p3828
aVharfehesaab
p3829
aVamcclinton
p3830
aVseocorporation1
p3831
aVavdi
p3832
aValexlion
p3833
aVhastings
p3834
aVfrivmini
p3835
aVabighairyspider
p3836
aVpaulwmurphy
p3837
aVjchutchins
p3838
aVbinmugahid
p3839
aVsergiomaistrello
p3840
aVmacstash
p3841
aVwvacationdreams
p3842
aVjodysmarketing
p3843
aVclienhardt
p3844
aVmikhort144
p3845
aVspidercam
p3846
aVfragzero
p3847
aVorganicthinking
p3848
aVkrys2fur
p3849
aVjeffevans
p3850
aVlaistery
p3851
aVsstiefel
p3852
aVjensgc
p3853
aVmuhammed91
p3854
aVtylermitchell
p3855
aVnevill
p3856
aVget2marketing
p3857
aVericaspitulski
p3858
aVsutesutesute
p3859
aVanitashahpouri
p3860
aVvisualsspeak
p3861
aVsadiq1
p3862
aVleopag
p3863
aVgirltaristhan
p3864
aVmahboob1
p3865
aVlolapirkhal
p3866
aVyusufarpaci
p3867
aVspartz
p3868
aVchaam
p3869
aVsebastiani
p3870
aVgisellebenatar
p3871
aVgizemsalman
p3872
aVsherikayehoff
p3873
aVr1d1
p3874
aVzench
p3875
aVmaxilnaz
p3876
aVdentalman
p3877
aVglobalseoconsultants
p3878
aVizi1
p3879
aVimrobsimpson
p3880
aVmarjinalklasikinsan
p3881
aVjasonemiller
p3882
aVhowbloggerearn
p3883
aVferdi22
p3884
aVjherzanek
p3885
aVaydinbolkar
p3886
aVkatasztrofak
p3887
aVladychaos
p3888
aVilmast
p3889
aVunnado
p3890
aVmyoyu
p3891
aVleothemaster
p3892
aVmarybee515
p3893
aVlovemedeux
p3894
aVthomasmorton1
p3895
aVineedahandbag
p3896
aVmerzeci
p3897
aVclapperboardvideo
p3898
aVpsychicdeon
p3899
aVhaniyealimohamadi
p3900
aVimmobiliare
p3901
aVtechnolize
p3902
aVmotepan
p3903
aVjohnmurray5
p3904
aVharrisonpainter
p3905
aVikeikeikkei0323
p3906
aVgetveterinarianjobs
p3907
aViiiiipoopou98
p3908
aVravegear
p3909
aVrogerwarner
p3910
aVgrhanztrk
p3911
aVfadimeeeee
p3912
aVemekdunyasinet
p3913
aVwisepr
p3914
aVandrewbloch
p3915
aV30s
p3916
aVchadschomber
p3917
aVfedes1
p3918
aValessiatronchi
p3919
aVkazamasmokers
p3920
aVchanux
p3921
aVjucarjim
p3922
aVismailsertaylmaz
p3923
aVcclofmead
p3924
aVedsanchez
p3925
aVikeyu
p3926
aVdarkgx
p3927
aVvilde
p3928
aVaravindajith
p3929
aVlasse
p3930
aVmattlongley
p3931
aVlotnet01
p3932
aVmediapirate
p3933
aVsemihoz
p3934
aVtrsplash
p3935
aVanujlucky
p3936
aVtatsuyakimura
p3937
aVkamrankashani
p3938
aVjwmitch
p3939
aVjgugan
p3940
aVazamatulbashev
p3941
aVideabing
p3942
aVnosebleederjp
p3943
aVfauverjo
p3944
aVlizmcreations
p3945
aVmattshaulis
p3946
aVaarontharvey
p3947
aVgeoffreyfarinha
p3948
aVtonoccho1
p3949
aVjeremyfelt
p3950
aVnetvantage
p3951
aVtechsoup
p3952
aVlamar70
p3953
aVzayonchek
p3954
aVmichellautensack
p3955
aVdtan1
p3956
aVtcurt
p3957
aVbusinessvaluematters
p3958
aVsaraheiknersmith
p3959
aVshoshanayossef
p3960
aV247moms
p3961
aVroosdaii
p3962
aVconstraint
p3963
aVmarkbruns
p3964
aVtheprodesigner
p3965
aVtracina
p3966
aVworkcube
p3967
aVmarkharrisonuk
p3968
aVohnmur
p3969
aVmilz10productions
p3970
aVitaglianista
p3971
aVageasoft
p3972
aVlizzielarock
p3973
aVbasaksevi
p3974
aVonalobsterplacemat
p3975
aVannaingiro
p3976
aVcathyglass
p3977
aVappiccicati
p3978
aVnsl
p3979
aVidgo
p3980
aVzfbr
p3981
aVchelios1
p3982
aVriyon55972
p3983
aVlegendfame
p3984
aVkaankucuk
p3985
aVbabakdad1
p3986
aVvalentinagrimaldi
p3987
aVtommyreyes
p3988
aVulrichmaiss
p3989
aVsd1313
p3990
aVmauricehh
p3991
aVdomineconcept1
p3992
aVaydinkaya
p3993
aVvefenver
p3994
aVlevelten
p3995
aVclownboyzuzu
p3996
aVstudio747
p3997
aVsaimemrekanat
p3998
aVgokhanaykut
p3999
aVheidimiller
p4000
aVbbgardenflorenc
p4001
aVmichalgaponiuk
p4002
aVavadhcarv
p4003
aVcaribe
p4004
aVdulcitalove
p4005
aVpuraucotes
p4006
aVfreeuganda
p4007
aVsrirat
p4008
aVhotcornerno3
p4009
aVcedricvanhaver
p4010
aVblogru
p4011
aVfungata85
p4012
aVmarlynw
p4013
aVphilipharris
p4014
aVnobublacklabel
p4015
aVforexfxsmooth
p4016
aVjbialer1
p4017
aVjazjaz
p4018
aVuyuyang
p4019
aVellenswanson
p4020
aVozgebilgili
p4021
aVgulufergul
p4022
aVfreearcadegameonline
p4023
aVjrtb
p4024
aVrobynjay
p4025
aVct8888
p4026
aVmarilynjohnson
p4027
aVcartoono1
p4028
aVtempeey
p4029
aVmikeruman
p4030
aVkaigray
p4031
aVsdjoseph1
p4032
aVbariscebeci
p4033
aVcpweducator
p4034
aVnimbuzz
p4035
aVniecee
p4036
aVsedna2501
p4037
aVzarabadoo
p4038
aVmaje
p4039
aVjumbo
p4040
aVnetslova
p4041
aVabogdan
p4042
aVtaz29323
p4043
aVdianenadeau
p4044
aVxoxeixslmglexx
p4045
aVsocialemail
p4046
aVjeffscott1
p4047
aVadamzikowski
p4048
aVchrislparton
p4049
aVk5tnk
p4050
aVsacidharimi
p4051
aVedaca
p4052
aVmkoenig
p4053
aV1mag3
p4054
aVcechastain
p4055
aVpharmas
p4056
aVrebeccatapley
p4057
aVdnw
p4058
aVfairoshall
p4059
aVmistercredit
p4060
aVbrianbowman
p4061
aVcyberbougnat
p4062
aVomergul
p4063
aVstyix
p4064
aVcamuran
p4065
aVfrancescaanzalone
p4066
aVlorijharris
p4067
aVyouweilin
p4068
aVarticlezone
p4069
aVahmet218
p4070
aVmillerian
p4071
aVyusufbekta
p4072
aVildarik
p4073
aVucsdcogneuro
p4074
aVsenolbabaoglan
p4075
aVmia1
p4076
aVashsrivastava
p4077
aVtimecommander
p4078
aVdawards
p4079
aVcamdakisinek
p4080
aVjeffalbright
p4081
aVthecardinaldela1
p4082
aVesthernet
p4083
aVilkerakar1
p4084
aVevat
p4085
aVlucapacini
p4086
aVfaziletkara
p4087
aVwilliamhuebnerjr
p4088
aVlaohao
p4089
aVmacewenpatterson
p4090
aVgkhankuzucu
p4091
aVmelamorsicata
p4092
aVluftawrite
p4093
aVtdaonp
p4094
aVitaloblog
p4095
aVrevolution83x
p4096
aVandybennett
p4097
aVphotobyace
p4098
aVdjfemmie
p4099
aVdanielpagno
p4100
aVjennrubin
p4101
aVcherkoff
p4102
aVcasinoveneziaonline
p4103
aVarteh
p4104
aVbluecc2010
p4105
aVdjncfworldwide
p4106
aVpressured1
p4107
aVstevenlshaw
p4108
aVwarrenmarland
p4109
aVfikretdadas
p4110
aVjaytoddmartin
p4111
aVdagdeviren
p4112
aVlinglingluong
p4113
aValexfvance
p4114
aVguidowaldenmeier
p4115
aVelitecastingnetwork
p4116
aVpetereldredge
p4117
aVmoodyprlady
p4118
aVopheli8
p4119
aVmackcollier
p4120
aVbloggyweb
p4121
aVkateeov
p4122
aVhorus79
p4123
aVdumbbell
p4124
aVfrankpacolicea
p4125
aVjamie2258
p4126
aVpoyrazvirtualairlines
p4127
aVdeekstarpricecomparisons
p4128
aVlaurent65
p4129
aVhermesiletisim
p4130
aVeliana23
p4131
aVnoelzgal
p4132
aVnancydevine
p4133
aVrevolweb
p4134
aVhkuroto
p4135
aVminischnauzer
p4136
aVokclose
p4137
aVaemailmarketing
p4138
aVchuckaby
p4139
aVintmainvoid
p4140
aVbadbadde
p4141
aVrickygibsonsr
p4142
aVkitapturk
p4143
aVadnan48
p4144
aVmandy1
p4145
aVlectric
p4146
aVsarahmodel
p4147
aVmiltonvazquez
p4148
aVbastiangb
p4149
aVworldmovietop
p4150
aVsusangrisantiguitarist
p4151
aVmglickman
p4152
aVharrys5413
p4153
aVgrantokaneonline
p4154
aVwattymotty
p4155
aVwhisperingwhitewalls
p4156
aVmizz666
p4157
aVsebwichmann
p4158
aVkeane1
p4159
aVarpit
p4160
aVmesutcanuysal
p4161
aVbootechtv
p4162
aVsabreblade
p4163
aVhtwo
p4164
aVamangreek
p4165
aVtechbabe
p4166
aVjeffharbert
p4167
aVwhoolist
p4168
aVcoreyrecvlohe
p4169
aVstarzuncut
p4170
aVsinasalami
p4171
aVjessica999
p4172
aVltank
p4173
aVshawncheatham
p4174
aVarslancinar
p4175
aVbluedoggiant
p4176
aVbschwartz64
p4177
aVpatchruses
p4178
aVdeanprochnow
p4179
aVaustinlowpeez
p4180
aVimambandy
p4181
aVbwingenroth
p4182
aVsynergist
p4183
aVhakanc
p4184
aVdiyphotocanvas
p4185
aVrodbook
p4186
aVsemikami
p4187
aVtryroman
p4188
aVhisocialmedia
p4189
aVtjhart
p4190
aVyungtaddle
p4191
aVmjuliette
p4192
aVshaymaa
p4193
aVpetehelmore
p4194
aVkimkardashian
p4195
aVrisingson
p4196
aVoldwang
p4197
aVtenbusuk
p4198
aVmisseli
p4199
aVmysweepslink
p4200
aVspmastertrader1
p4201
aVahmetyaman5
p4202
aVstparu
p4203
aVmijiggles
p4204
aVdeineigenerwein
p4205
aVgayritchie
p4206
aVyukion109
p4207
aVfranckmahon
p4208
aVnextsteph
p4209
aVbstreeter
p4210
aVtserio
p4211
aVyasuireiko
p4212
aVmackly
p4213
aVitssozai
p4214
aVtw371
p4215
aVkristiemcnealy
p4216
aVkornelyus1
p4217
aVcatlaine
p4218
aVjawed1
p4219
aVleemons
p4220
aVjeffsangeorge
p4221
aVhiwaroj
p4222
aVtedxmilano
p4223
aVbostonorganandpiano
p4224
aVaugustseven
p4225
aVemanassy
p4226
aVphotobiz
p4227
aVmikelewisrealtor
p4228
aValistrouffles
p4229
aVairking516
p4230
aVrudysiebenstein
p4231
aVchiraag
p4232
aVsamorodok
p4233
aVrickykc
p4234
aVjoshroth
p4235
aVjoenoia
p4236
aVtcar
p4237
aVmertulas
p4238
aVpdxfunster
p4239
aVnovie1
p4240
aVricardcastellet1
p4241
aVblairheuer
p4242
aVjeffmeuz
p4243
aVmyeastbayhouses
p4244
aVmatthewgain
p4245
aVoprincipal
p4246
aVperpetualspiral
p4247
aVhuzhenghui37
p4248
aVanwarfarooq
p4249
aVstedavies
p4250
aVpirlantsaat
p4251
aVcokan
p4252
aVrenewelter
p4253
aVoremore
p4254
aVxeny
p4255
aVbaseballfuries
p4256
aVyoraimarojasmendoza
p4257
aVwakooz
p4258
aVretirementinvestments
p4259
aVenjyuji
p4260
aVagirlsgottaspa
p4261
aVsvensonsan
p4262
aVsebastiyan
p4263
aVandreasl1
p4264
aVbeachnight
p4265
aVmauriziovaroli
p4266
aVkangmunir
p4267
aVd0tski
p4268
aVjwalters
p4269
aVzgomezliss
p4270
aVlkilpatrick
p4271
aVismaelmuniz
p4272
aVtripatre
p4273
aVmikebutcher
p4274
aVavocattunisie
p4275
aVricc
p4276
aVmehmetgr
p4277
aVcreditrepair1234
p4278
aVsscaglia
p4279
aVcassandrarae
p4280
aVtimandjulie
p4281
aVtap
p4282
aVprosales
p4283
aVglongman
p4284
aVitgregdrake
p4285
aVmaitlanddan
p4286
aVjiblog
p4287
aVtwitjobsearch
p4288
aVkaf3s
p4289
aVlindastrasberg
p4290
aVjoelgarduce
p4291
aVemrecil
p4292
aVsan8
p4293
aVtigerom
p4294
aVkellimccorkle
p4295
aVdonaire
p4296
aVsosyaladam
p4297
aV893erg
p4298
aVjennasnacks
p4299
aVfatihyildiz1
p4300
aVhelplinelaw
p4301
aVbdicle1
p4302
aVniddhog
p4303
aVbloggerciputat
p4304
aVtanpoo
p4305
aVsolideavitali
p4306
aVarabusinessbank
p4307
aVnesliergn
p4308
aVotisobengoptimistic
p4309
aVibloom
p4310
aVnokiaplay
p4311
aVenviroknow
p4312
aVrdhub
p4313
aVwindsortweet
p4314
aVafakkaya
p4315
aVgabo29
p4316
aVspottedbylocals
p4317
aVdavehitt
p4318
aVcsimanager
p4319
aVcronostrade
p4320
aVrosscohen1
p4321
aVnadika
p4322
aVvirtix
p4323
aVugurerkan
p4324
aVphoenix2life
p4325
aVloyalty360
p4326
aVderekantoncich
p4327
aVrajrajkkumar
p4328
aVorganicseomarketing
p4329
aVtaylor24smith
p4330
aVglubble
p4331
aVnelamoore
p4332
aValbertgrande
p4333
aVrestructuregirl
p4334
aVpohaiplace
p4335
aVmarcosmom
p4336
aVdrpardus
p4337
aVporschepurist
p4338
aS'joanmiro'
p4339
aVarda37
p4340
aVandyojones
p4341
aVtimofeev
p4342
aVhridayramshenoy
p4343
aVjesusferre
p4344
aVdorian06
p4345
aVbyz
p4346
aVsomenice
p4347
aVcollidellamurgia
p4348
aVmanuoso
p4349
aVterrierdogs
p4350
aVcelebrityprotectionservi
p4351
aVwmatweet
p4352
aVdumbdish
p4353
aVcitrus
p4354
aValanmusselman
p4355
aVhanimourra
p4356
aVjoannlefebvre1
p4357
aVorchardkeeper
p4358
aVfrankhellwig
p4359
aVtraceydooley
p4360
aVimurphy1
p4361
aVbmossop1
p4362
aVrahadian
p4363
aVcharan241
p4364
aVjarretmyer
p4365
aVrahekargarkhabari
p4366
aVkhaliqovision
p4367
aVhassanibraheem
p4368
aVsrivero
p4369
aVdeviantresearch
p4370
aVkenny8262
p4371
aVdavebriggs
p4372
aVjennydaves
p4373
aVnickrae
p4374
aVtegaisao
p4375
aVpaydayauthority
p4376
aVademaslan1
p4377
aVcrembebekidz
p4378
aVscemyesilyurt
p4379
aVmehmetsnmez
p4380
aVavtoshara
p4381
aVisaacmosquera
p4382
aVmehmetylmaz17
p4383
aVvampircikcom
p4384
aVdpanderson1
p4385
aVtimothylambrechts
p4386
aVivannagrem
p4387
aVdavidstocum
p4388
aVzadza
p4389
aVchatmy
p4390
aVuyurnet
p4391
aVnjmacmagic
p4392
aVwajam1
p4393
aVjeffperry
p4394
aVyaseminkarasu
p4395
aVsunilyadav
p4396
aVmjamil
p4397
aVseopaw
p4398
aVrichcartlidge
p4399
aVjohnpostill
p4400
aVgjunormayho
p4401
aVriot00
p4402
aVpetehay
p4403
aVgrahamyoung
p4404
aVnastymct
p4405
aVyberian
p4406
aVpdcdesign
p4407
aVdenisaygun
p4408
aVpoulaindjeghader
p4409
aVraalnan5
p4410
aVsapfiros
p4411
aVsiegilindenmayr
p4412
aVmilou1104
p4413
aVfoodphilosophy
p4414
aValexxr
p4415
aVmaurizionicosia
p4416
aVpejman
p4417
aVborntobuzz
p4418
aVmariateresaquirkearrau
p4419
aVvpgemini
p4420
aVmarkmcknight
p4421
aVdavitferreira
p4422
aVphotoaixmars
p4423
aVgassenmahfoudh
p4424
aVfedina86
p4425
aVdavidpitkin
p4426
aVthesadpierrot
p4427
aVmustafagenc
p4428
aVriinareivala
p4429
aVmanurangel
p4430
aVsyarifmasahor
p4431
aVfreemoviej
p4432
aVosmanozmen
p4433
aVdeeppurple
p4434
aVdcesarini
p4435
aVnbowman
p4436
aVtemitopes
p4437
aVandreaskahl
p4438
aVvicpodcaster
p4439
aVsimplespot
p4440
aVosasaito
p4441
aVkevintan
p4442
aVtolgatezuyar
p4443
aVnamesugar
p4444
aVamirshim
p4445
aVsungpong
p4446
aVbemilano
p4447
aVgeneral87
p4448
aVjulnav
p4449
aVlisapadilla
p4450
aVtsimmons
p4451
aVbigs211
p4452
aVlula1
p4453
aVraissanebie
p4454
aVgeytc
p4455
aVtaterhead
p4456
aVadamthomann
p4457
aVffkevin27starrphotograpy
p4458
aVlinaarm
p4459
aVarsenalfoot
p4460
aVdenbyzubieta
p4461
aVtwilightearth
p4462
aVavtoblog78
p4463
aVxebix
p4464
aVmikefeil
p4465
aVarspan
p4466
aVpavatimarine
p4467
aVatruefriend100
p4468
aVjoepestro
p4469
aVadrianh2
p4470
aVfederico92
p4471
aVbear1
p4472
aVjimspaulding
p4473
aValbertwang
p4474
aVdinkmon360
p4475
aVajroberts
p4476
aVdagiord
p4477
aVwenxin
p4478
aVboliarajneesh
p4479
aVismailperim
p4480
aVvillalotus
p4481
aVswong
p4482
aVandreaskhler
p4483
aVwesterstal1
p4484
aVsaygo
p4485
aVautonomy14
p4486
aVsnhasani
p4487
aVblogsterific
p4488
aVelanaj1
p4489
aVblueoceanpalm
p4490
aVkorieleeanne
p4491
aVjsn9000
p4492
aVeskihesap
p4493
aVpepwebdesign
p4494
aVlizpw
p4495
aVtnwmartin
p4496
aVwits
p4497
aVspaceguy
p4498
aViggygarcia
p4499
aVgocoolyourself1
p4500
aVlalitd
p4501
aVgforst
p4502
aVgulf23
p4503
aVjuanignacioperez
p4504
aVkellieparker
p4505
aVkadopi1
p4506
aVblogbrain
p4507
aVhahvahd
p4508
aVfahadsujun
p4509
aVsebpaquet
p4510
aVphilliptusing
p4511
aVtravishines
p4512
aVrgr4y
p4513
aVlisajobarr
p4514
aVtwitirpufnokta
p4515
aVdrenee1
p4516
aVkamekawayuji
p4517
aVbelindaoconnor
p4518
aVmotomocomo
p4519
aVdavidturner3
p4520
aVdfwseniors
p4521
aVacademik
p4522
aVmax300
p4523
aVboliviaperutour
p4524
aVrobnogueira
p4525
aVadavant
p4526
aVdidemgzel
p4527
aVwakafeed
p4528
aVmuratgil
p4529
aVmuhammetekremdinc
p4530
aVandreasl
p4531
aViipalbanjary
p4532
aVbrianbarth
p4533
aVbolvanger
p4534
aVromeyinfc
p4535
aVmichaelshawns
p4536
aVcolinlimpright
p4537
aVrealdippindots
p4538
aVanneonline
p4539
aVdehumanizer
p4540
aVgoldenhorizontl
p4541
aVmisagh
p4542
aVbhamjoel
p4543
aVsarik
p4544
aVambo
p4545
aVunemployedsucks
p4546
aValexplank
p4547
aVgarethrampton
p4548
aVggelain
p4549
aVtaner38
p4550
aVonpuuna
p4551
aVbenrb
p4552
aVthesixthlens
p4553
aVcaksan
p4554
aVbaconway
p4555
aVmiralisabzineh
p4556
aVkijiman
p4557
aVsfriedscientist
p4558
aVfatimadalila
p4559
aVnigelchuaginhan
p4560
aVsammybdj
p4561
aVdilagumurcinler
p4562
aVamitkarpe
p4563
aVtanerzor
p4564
aVdnadeau
p4565
aVrlcesar
p4566
aVpuratu
p4567
aVervinkleitz
p4568
aVlibalefede
p4569
aVoutofcuriosity
p4570
aVgarethjenkins
p4571
aVmarkmcguinness
p4572
aVmeterse61
p4573
aValpaslansahin
p4574
aVchriseldridge69
p4575
aVasiscom
p4576
aVgeoffrey
p4577
aVhimaeromanga
p4578
aVdutchproblogger
p4579
aVcobaltbones
p4580
aVfermented
p4581
aVbarcelonafoot
p4582
aVbeaugoss
p4583
aVjameslz1
p4584
aVfruetel
p4585
aVdarrindickey
p4586
aVkeithbennett
p4587
aVloren
p4588
aVgardeningfun
p4589
aVsidrudi
p4590
aVckenton
p4591
aVmjcarter
p4592
aVjczorkmid
p4593
aVdisneysoprano
p4594
aVthedynamiteguy
p4595
aVkorayyaman
p4596
aVcitypress
p4597
aVtonydbaker
p4598
aVwomencoaching
p4599
aVpaolo1976
p4600
aVcornelius
p4601
aVlauracamus1
p4602
aVscrawledinwax
p4603
aVlocksmiths1
p4604
aVpeggychamplin
p4605
aVyildiztanju
p4606
aVgreengirls
p4607
aVmaymaym
p4608
aVkazinagaki
p4609
aVshishimaru
p4610
aVlassi
p4611
aVcandacelilyquist
p4612
aVekronos
p4613
aVangelanyc821
p4614
aVbayside747
p4615
aVintelligensia
p4616
aVneda52
p4617
aVarteta
p4618
aVademc
p4619
aVvveerrgg
p4620
aVashworthcreative
p4621
aVjrfern
p4622
aVmustafasakaoglu
p4623
aVdogancanulker
p4624
aVahmetustaoglu
p4625
aVplatformasaservice
p4626
aVstenbeck
p4627
aVrobinchan
p4628
aVqichangxing
p4629
aVaxnesterenko
p4630
aVrecoilme
p4631
aVegablogspot
p4632
aVtrainercomms1
p4633
aVyazilim1
p4634
aVstevezim
p4635
aVsuitcasestories
p4636
aVwalkerfox
p4637
aVericvergeer
p4638
aVgaspart
p4639
aVlibertysarmy3
p4640
aVbloggerdal
p4641
aViwakeupstrange
p4642
aVdarrengorton
p4643
aVmohem
p4644
aVelcuni
p4645
aVlalessia1
p4646
aVleifnisan
p4647
aVfenasi4
p4648
aVselin5
p4649
aVscottgerhardt
p4650
aVblogityourway
p4651
aValirezacyrusmr
p4652
aVozhanzkn
p4653
aVieng182
p4654
aVellenfeaheny1
p4655
aVscrappymusic
p4656
aVkehindeabdul
p4657
aVmatthewddunn
p4658
aVshoppologist
p4659
aVsimone3
p4660
aV140hours
p4661
aVosmanerdogan
p4662
aVihatemornings
p4663
aVdrjorgedelgadopauta
p4664
aVjbh
p4665
aValirasouli
p4666
aVspooky5
p4667
aVkorhankurt
p4668
aVdondanhill1
p4669
aVimanraghebian
p4670
aVserhatugur
p4671
aVjerseytoddshow
p4672
aVanthiatyler
p4673
aVianlyons
p4674
aVchristophersales
p4675
aValexahyde
p4676
aVjonsamsel1
p4677
aVsonsuzlukc
p4678
aVkurokzhr
p4679
aVzeynepaykutalp
p4680
aVyoungbribree
p4681
aVphilgyford
p4682
aVmikegotta
p4683
aVezgisuatay
p4684
aVkerendianandassociates
p4685
aVcaglarcankaya1
p4686
aVu2s
p4687
aVreetaluthra
p4688
aVflgulfmls
p4689
aVjtretakoff
p4690
aVflatsharp
p4691
aVmorgan400
p4692
aVlilyblossom
p4693
aVpeppeli
p4694
aVawalaxru
p4695
aVaavaz
p4696
aVryanstewart
p4697
aVrenzosan
p4698
aVbelowa
p4699
aVseobrazil
p4700
aVedaalpay
p4701
aVmzladylovinlifeeveryday
p4702
aVdarrenyin
p4703
aVbauger
p4704
aVkathrynbrowndc
p4705
aVpediapied
p4706
aVtravellingthrou
p4707
aVloichay
p4708
aVana1616
p4709
aVgobeklicentilmen
p4710
aVsersur
p4711
aVmuneer78
p4712
aVplanscapeuk
p4713
aVjustynabizdra
p4714
aVyagizbayrak
p4715
aVelizabethbass
p4716
aVliquidcool
p4717
aVserizawanwan
p4718
aVonureroll
p4719
aVbuzzingup
p4720
aVgeteventjobs
p4721
aVblakedafurture
p4722
aVterziyan
p4723
aVmarclefton
p4724
aVtonylogue
p4725
aVcarmella75
p4726
aVtrieanggaenalenalecz
p4727
aVsmirnoffesk
p4728
aVkkousuke1
p4729
aVozansafi
p4730
aVnoaspa
p4731
aVpdbrebbe
p4732
aVamejohns
p4733
aVleventalikan
p4734
aVcolinwright
p4735
aVskinsync
p4736
aVcraigelias
p4737
aVspallanzani
p4738
aVmikeoneildenver
p4739
aViremous
p4740
aVhellotexts
p4741
aVtaradeliberto
p4742
aVeikookamoto
p4743
aVdobschat
p4744
aVbrkkntrc
p4745
aVwattmonkey
p4746
aVmaheswarannarendran
p4747
aVsemaaras
p4748
aVfriendangel
p4749
aVthieshaase
p4750
aVjkutz
p4751
aVtmolini
p4752
aVarzubreda
p4753
aVmikhailbakunin
p4754
aVfarnaziran
p4755
aVfivebooks
p4756
aVbchecket
p4757
aVprlab
p4758
aVadvertisingguy
p4759
aVnictos
p4760
aVpuding86
p4761
aVshinyanonomura1
p4762
aVshadowfoot
p4763
aValexandr17
p4764
aVjfxberns
p4765
aVchieplus
p4766
aVashishgourav
p4767
aVfsol
p4768
aVdongee
p4769
aVtheregoesdave
p4770
aVjhnydrko
p4771
aVconsoleo
p4772
aVseankelly
p4773
aVezijio1
p4774
aVstephenbalkam
p4775
aVwilohomes
p4776
aVargotheme
p4777
aVlivesolo
p4778
aVjustinwdavis
p4779
aVhasshyplus1
p4780
aVsleepybabe
p4781
aVuuraltun
p4782
aVehsane
p4783
aVmaurizio74
p4784
aVdingdinggege
p4785
aVfrwan
p4786
aVdjtl2
p4787
aVdraw
p4788
aVlorraineruiz
p4789
aVwebdirectory
p4790
aViemedia
p4791
aVchicche
p4792
aVcraniumfitteds1
p4793
aVdmalby
p4794
aVdanymiche
p4795
aVfourlakes
p4796
aVryoheinoda
p4797
aVdougludlow
p4798
aVianmallari
p4799
aVomeryalcin
p4800
aVtoddfarmer
p4801
aVjoebird
p4802
aVpeakadventure
p4803
aVbryanperson
p4804
aVbeacon512
p4805
aVadamfsh
p4806
aVmirandastweets
p4807
aVdodorz
p4808
aVawaldstein
p4809
aVestiy
p4810
aVbryuce
p4811
aVcyrusff
p4812
aVballinbilly1
p4813
aVthelancemorgan
p4814
aVdanesemeats
p4815
aVajay100
p4816
aVkevinmontgomery
p4817
aV1ernesto11
p4818
aVemrihanaydin
p4819
aVgenederieg
p4820
aVmikevm
p4821
aVvbilgin
p4822
aVkristinashapka
p4823
aVbertus1
p4824
aVjmksonar
p4825
aVgemstar38
p4826
aVbreyten
p4827
aVspillinkartgallery
p4828
aVyeldaa1
p4829
aVtoshizumi
p4830
aVstacyschrank
p4831
aVaffiliatemagic
p4832
aVyaradigigenleryarmas
p4833
aVvetamandra
p4834
aVericmcclatchy
p4835
aVergunkocak
p4836
aVelizabethonline
p4837
aVduponthomes
p4838
aVexsports
p4839
aVlauramoreno
p4840
aVgaywebsource
p4841
aVdanieldirks
p4842
aVkgl
p4843
aVhelicn
p4844
aVkeepwalking
p4845
aVshuzomatsuoka
p4846
aVmattjd
p4847
aVkarlhummel
p4848
aVdrjack
p4849
aVseherduruztrk
p4850
aVbriandavidz
p4851
aVekerdemiruz
p4852
aVmatsumotter
p4853
aVadahtaylor
p4854
aVtwig1gy
p4855
aVswimneil
p4856
aVclearviewassets
p4857
aVjerryberg
p4858
aVpennystockzone
p4859
aVtnwsearch
p4860
aVstryderjzw
p4861
aVgozdeinc
p4862
aVfranciscopozo
p4863
aVmisssmith
p4864
aVkimberlye
p4865
aVpinto
p4866
aValisonfaybinney
p4867
aVgrenzpfosten
p4868
aVmuratrahim4213
p4869
aVbizymoms
p4870
aVkeeshaparsons
p4871
aVtungarthur
p4872
aVschui6851
p4873
aVemreercan
p4874
aVdananner
p4875
aVyaroslavazhnyuk
p4876
aVpaccatchcoo
p4877
aVtwitmixa
p4878
aVsplitbrain
p4879
aVecoeventsource
p4880
aVpatzappavigna
p4881
aVrickoverman
p4882
aVarifkaya
p4883
aVspastikus
p4884
aVurustar
p4885
aVandrewkjs
p4886
aVpatrickrhill
p4887
aVyskin
p4888
aVconradlarson
p4889
aVtylerpoling
p4890
aVgiessen
p4891
aVsarali1
p4892
aVharpersnotes
p4893
aVkiwisteve14
p4894
aVwxianfeng
p4895
aVnetsurfinweb
p4896
aVkgard
p4897
aVeireenee
p4898
aVhafifuyku
p4899
aVmasanobuimai
p4900
aVbverdasco
p4901
aVozozozoioioi
p4902
aVwebjoe
p4903
aVekesken
p4904
aVgreenbriarinn315
p4905
aVkaythaney
p4906
aVandym801
p4907
aVnasim2
p4908
aVblietzkriegstampede
p4909
aVsuccessman
p4910
aVstejules
p4911
aV360naija
p4912
aVspinhead
p4913
aVjewelryoction
p4914
aVkamikazeben
p4915
aVmarcpsummers
p4916
aVrambls
p4917
aVashiqhussain
p4918
aVnealtaylor
p4919
aVmikebashi
p4920
aVsbendrix
p4921
aVjbchicago
p4922
aVpuzikov
p4923
aVkatiehammond
p4924
aVfgaeg
p4925
aVmartindubow
p4926
aVhardaway
p4927
aVfxkabu225
p4928
aVjantallent
p4929
aVjustintravis
p4930
aVziplok
p4931
aVwolpers
p4932
aVnurullahormeci
p4933
aVd0menico
p4934
aVcontactlab
p4935
aVmeganbroom
p4936
aVjapantwo
p4937
aVtinbasher
p4938
aVroadgoer
p4939
aVcitysylvester
p4940
aVcengizdemir
p4941
aVmarketingcouk
p4942
aVmtcakmak
p4943
aVsaxgiambelluca
p4944
atRp4945
.